ARM GAS  C:\Users\MIGHTY~1\AppData\Local\Temp\ccjdSXZd.s 			page 1


   1              		.syntax unified
   2              		.cpu cortex-m3
   3              		.fpu softvfp
   4              		.eabi_attribute 20, 1
   5              		.eabi_attribute 21, 1
   6              		.eabi_attribute 23, 3
   7              		.eabi_attribute 24, 1
   8              		.eabi_attribute 25, 1
   9              		.eabi_attribute 26, 1
  10              		.eabi_attribute 30, 4
  11              		.eabi_attribute 18, 4
  12              		.file	"nokia132x132.c"
  13              	@ GNU C (Sourcery G++ Lite 2010.09-51) version 4.5.1 (arm-none-eabi)
  14              	@	compiled by GNU C version 4.3.2, GMP version 4.3.2, MPFR version 2.4.2, MPC version 0.8.1
  15              	@ GGC heuristics: --param ggc-min-expand=100 --param ggc-min-heapsize=131072
  16              	@ options passed:  -I . -I./pygmy -Ic:/users/mightydubster/ride7/pygmy/
  17              	@ -imultilib thumb2 -iprefix
  18              	@ c:\program files (x86)\raisonance\ride\arm-gcc\bin\../lib/gcc/arm-none-eabi/4.5.1/
  19              	@ -isysroot
  20              	@ c:\program files (x86)\raisonance\ride\arm-gcc\bin\../arm-none-eabi -MD
  21              	@ c:/users/mightydubster/ride7/pygmy/profiles/lcd/nokia132x132.d -MF
  22              	@ .dep/nokia132x132.o.d -MP -MQ
  23              	@ c:/users/mightydubster/ride7/pygmy/profiles/lcd/nokia132x132.o
  24              	@ -D__USES_INITFINI__ -D_STM32F100R8_ -D_STM3x_ -D_STM32x_
  25              	@ -DRUN_FROM_FLASH=1 -D__CS_SOURCERYGXX_MAJ__=2010
  26              	@ -D__CS_SOURCERYGXX_MIN__=9 -D__CS_SOURCERYGXX_REV__=51
  27              	@ c:/users/mightydubster/ride7/pygmy/profiles/lcd/nokia132x132.c
  28              	@ -mcpu=cortex-m3 -mthumb -mlittle-endian -auxbase-strip
  29              	@ c:/users/mightydubster/ride7/pygmy/profiles/lcd/nokia132x132.o -gdwarf-2
  30              	@ -Os -Wall -Wstrict-prototypes -fomit-frame-pointer -ffunction-sections
  31              	@ -fverbose-asm
  32              	@ options enabled:  -falign-loops -fargument-alias -fauto-inc-dec
  33              	@ -fbranch-count-reg -fcaller-saves -fcommon -fcprop-registers
  34              	@ -fcrossjumping -fcse-follow-jumps -fdefer-pop
  35              	@ -fdelete-null-pointer-checks -fdwarf2-cfi-asm -fearly-inlining
  36              	@ -feliminate-unused-debug-types -fexpensive-optimizations
  37              	@ -fforward-propagate -ffunction-cse -ffunction-sections -fgcse -fgcse-lm
  38              	@ -fguess-branch-probability -fident -fif-conversion -fif-conversion2
  39              	@ -findirect-inlining -finline -finline-functions
  40              	@ -finline-functions-called-once -finline-small-functions -fipa-cp
  41              	@ -fipa-pure-const -fipa-reference -fipa-sra -fira-share-save-slots
  42              	@ -fira-share-spill-slots -fivopts -fkeep-static-consts
  43              	@ -fleading-underscore -fmath-errno -fmerge-constants -fmerge-debug-strings
  44              	@ -fomit-frame-pointer -foptimize-register-move -foptimize-sibling-calls
  45              	@ -fpeephole -fpeephole2 -freg-struct-return -fregmove -freorder-blocks
  46              	@ -freorder-functions -frerun-cse-after-loop
  47              	@ -fsched-critical-path-heuristic -fsched-dep-count-heuristic
  48              	@ -fsched-group-heuristic -fsched-interblock -fsched-last-insn-heuristic
  49              	@ -fsched-rank-heuristic -fsched-spec -fsched-spec-insn-heuristic
  50              	@ -fsched-stalled-insns-dep -fschedule-insns2 -fsection-anchors
  51              	@ -fshow-column -fsigned-zeros -fsplit-ivs-in-unroller -fsplit-wide-types
  52              	@ -fstrict-aliasing -fstrict-overflow -fstrict-volatile-bitfields
  53              	@ -fthread-jumps -ftoplevel-reorder -ftrapping-math -ftree-builtin-call-dce
  54              	@ -ftree-ccp -ftree-ch -ftree-copy-prop -ftree-copyrename -ftree-cselim
  55              	@ -ftree-dce -ftree-dominator-opts -ftree-dse -ftree-forwprop -ftree-fre
  56              	@ -ftree-loop-im -ftree-loop-ivcanon -ftree-loop-optimize
  57              	@ -ftree-parallelize-loops= -ftree-phiprop -ftree-pta -ftree-reassoc
ARM GAS  C:\Users\MIGHTY~1\AppData\Local\Temp\ccjdSXZd.s 			page 2


  58              	@ -ftree-scev-cprop -ftree-sink -ftree-slp-vectorize -ftree-sra
  59              	@ -ftree-switch-conversion -ftree-ter -ftree-vect-loop-version -ftree-vrp
  60              	@ -funit-at-a-time -fvar-tracking -fvar-tracking-assignments -fverbose-asm
  61              	@ -fzero-initialized-in-bss -mfix-cortex-m3-ldrd -mlittle-endian
  62              	@ -msched-prolog -mthumb
  63              	
  70 0000 B5020000 		.text
  70      0200C500 
  70      00000201 
  70      FB0E0D00 
  70      01010101 
  71              	.Ltext0:
  72              	@ Compiler executable checksum: 352febfaba11ed73bc3949f13db5155f
  73              	
  74              		.cfi_sections	.debug_frame
  75              		.section	.text.lcdWriteCommand,"ax",%progbits
  76              		.align	1
  77              		.global	lcdWriteCommand
  78              		.thumb
  79              		.thumb_func
  80              		.type	lcdWriteCommand, %function
  81              	lcdWriteCommand:
  82              	.LFB0:
  83              		.file 1 "c:/users/mightydubster/ride7/pygmy/profiles/lcd/nokia132x132.c"
   1:c:/users/mightydubster/ride7/pygmy/profiles/lcd\nokia132x132.c **** /**************************************************************************
   2:c:/users/mightydubster/ride7/pygmy/profiles/lcd\nokia132x132.c ****     PygmyOS ( Pygmy Operating System )
   3:c:/users/mightydubster/ride7/pygmy/profiles/lcd\nokia132x132.c ****     Copyright (C) 2011  Warren D Greenway
   4:c:/users/mightydubster/ride7/pygmy/profiles/lcd\nokia132x132.c **** 
   5:c:/users/mightydubster/ride7/pygmy/profiles/lcd\nokia132x132.c ****     This program is free software: you can redistribute it and/or modify
   6:c:/users/mightydubster/ride7/pygmy/profiles/lcd\nokia132x132.c ****     it under the terms of the GNU General Public License as published by
   7:c:/users/mightydubster/ride7/pygmy/profiles/lcd\nokia132x132.c ****     the Free Software Foundation, either version 3 of the License, or
   8:c:/users/mightydubster/ride7/pygmy/profiles/lcd\nokia132x132.c ****     (at your option) any later version.
   9:c:/users/mightydubster/ride7/pygmy/profiles/lcd\nokia132x132.c **** 
  10:c:/users/mightydubster/ride7/pygmy/profiles/lcd\nokia132x132.c ****     This program is distributed in the hope that it will be useful,
  11:c:/users/mightydubster/ride7/pygmy/profiles/lcd\nokia132x132.c ****     but WITHOUT ANY WARRANTY; without even the implied warranty of
  12:c:/users/mightydubster/ride7/pygmy/profiles/lcd\nokia132x132.c ****     MERCHANTABILITY or FITNESS FOR A PARTICULAR PURPOSE.  See the
  13:c:/users/mightydubster/ride7/pygmy/profiles/lcd\nokia132x132.c ****     GNU General Public License for more details.
  14:c:/users/mightydubster/ride7/pygmy/profiles/lcd\nokia132x132.c **** 
  15:c:/users/mightydubster/ride7/pygmy/profiles/lcd\nokia132x132.c ****     You should have received a copy of the GNU General Public License
  16:c:/users/mightydubster/ride7/pygmy/profiles/lcd\nokia132x132.c ****     along with this program.  If not, see <http://www.gnu.org/licenses/>.
  17:c:/users/mightydubster/ride7/pygmy/profiles/lcd\nokia132x132.c **** ***************************************************************************/
  18:c:/users/mightydubster/ride7/pygmy/profiles/lcd\nokia132x132.c **** 
  19:c:/users/mightydubster/ride7/pygmy/profiles/lcd\nokia132x132.c **** #include "pygmy_profile.h"
  20:c:/users/mightydubster/ride7/pygmy/profiles/lcd\nokia132x132.c **** 
  21:c:/users/mightydubster/ride7/pygmy/profiles/lcd\nokia132x132.c **** //********************************************************************
  22:c:/users/mightydubster/ride7/pygmy/profiles/lcd\nokia132x132.c **** //****************************Nokia 132x132***************************
  23:c:/users/mightydubster/ride7/pygmy/profiles/lcd\nokia132x132.c **** //*************************Epson S1D15G10D08BE************************
  24:c:/users/mightydubster/ride7/pygmy/profiles/lcd\nokia132x132.c **** //********************************************************************
  25:c:/users/mightydubster/ride7/pygmy/profiles/lcd\nokia132x132.c **** #define LCD_DISON       0xAF
  26:c:/users/mightydubster/ride7/pygmy/profiles/lcd\nokia132x132.c **** #define LCD_DISOFF      0xAE
  27:c:/users/mightydubster/ride7/pygmy/profiles/lcd\nokia132x132.c **** #define LCD_DISNOR      0xA6
ARM GAS  C:\Users\MIGHTY~1\AppData\Local\Temp\ccjdSXZd.s 			page 3


  28:c:/users/mightydubster/ride7/pygmy/profiles/lcd\nokia132x132.c **** #define LCD_DISINV      0xA7
  29:c:/users/mightydubster/ride7/pygmy/profiles/lcd\nokia132x132.c **** #define LCD_SLPIN       0x95
  30:c:/users/mightydubster/ride7/pygmy/profiles/lcd\nokia132x132.c **** #define LCD_SLPOUT      0x94
  31:c:/users/mightydubster/ride7/pygmy/profiles/lcd\nokia132x132.c **** #define LCD_COMSCN      0xBB
  32:c:/users/mightydubster/ride7/pygmy/profiles/lcd\nokia132x132.c **** #define LCD_DISCTL      0xCA
  33:c:/users/mightydubster/ride7/pygmy/profiles/lcd\nokia132x132.c **** #define LCD_PAGESET     0x75
  34:c:/users/mightydubster/ride7/pygmy/profiles/lcd\nokia132x132.c **** #define LCD_COLSET      0x15
  35:c:/users/mightydubster/ride7/pygmy/profiles/lcd\nokia132x132.c **** #define LCD_DATCTL      0xBC
  36:c:/users/mightydubster/ride7/pygmy/profiles/lcd\nokia132x132.c **** #define LCD_RGBSET8     0xCE
  37:c:/users/mightydubster/ride7/pygmy/profiles/lcd\nokia132x132.c **** #define LCD_RAMWR       0x5C
  38:c:/users/mightydubster/ride7/pygmy/profiles/lcd\nokia132x132.c **** #define LCD_RAMRD       0x5D
  39:c:/users/mightydubster/ride7/pygmy/profiles/lcd\nokia132x132.c **** #define LCD_PTLIN       0xA8
  40:c:/users/mightydubster/ride7/pygmy/profiles/lcd\nokia132x132.c **** #define LCD_PTLOUT      0xA9
  41:c:/users/mightydubster/ride7/pygmy/profiles/lcd\nokia132x132.c **** #define LCD_RMWIN       0xE0
  42:c:/users/mightydubster/ride7/pygmy/profiles/lcd\nokia132x132.c **** #define LCD_RMWOUT      0xEE
  43:c:/users/mightydubster/ride7/pygmy/profiles/lcd\nokia132x132.c **** #define LCD_ASCSET      0xAA
  44:c:/users/mightydubster/ride7/pygmy/profiles/lcd\nokia132x132.c **** #define LCD_SCSTART     0xAB
  45:c:/users/mightydubster/ride7/pygmy/profiles/lcd\nokia132x132.c **** #define LCD_OSCON       0xD1
  46:c:/users/mightydubster/ride7/pygmy/profiles/lcd\nokia132x132.c **** #define LCD_OSCOFF      0xD2
  47:c:/users/mightydubster/ride7/pygmy/profiles/lcd\nokia132x132.c **** #define LCD_PWRCTR      0x20
  48:c:/users/mightydubster/ride7/pygmy/profiles/lcd\nokia132x132.c **** #define LCD_VOLCTR      0x81
  49:c:/users/mightydubster/ride7/pygmy/profiles/lcd\nokia132x132.c **** #define LCD_VOLUP       0xD6
  50:c:/users/mightydubster/ride7/pygmy/profiles/lcd\nokia132x132.c **** #define LCD_VOLDOWN     0xD7
  51:c:/users/mightydubster/ride7/pygmy/profiles/lcd\nokia132x132.c **** #define LCD_TMPGRD      0x82
  52:c:/users/mightydubster/ride7/pygmy/profiles/lcd\nokia132x132.c **** #define LCD_EPCTIN      0xCD
  53:c:/users/mightydubster/ride7/pygmy/profiles/lcd\nokia132x132.c **** #define LCD_EPCOUT      0xCC
  54:c:/users/mightydubster/ride7/pygmy/profiles/lcd\nokia132x132.c **** #define LCD_EPMWR       0xFC
  55:c:/users/mightydubster/ride7/pygmy/profiles/lcd\nokia132x132.c **** #define LCD_EPMRD       0xFD
  56:c:/users/mightydubster/ride7/pygmy/profiles/lcd\nokia132x132.c **** #define LCD_EPSRRD1     0x7C
  57:c:/users/mightydubster/ride7/pygmy/profiles/lcd\nokia132x132.c **** #define LCD_EPSRRD2     0x7D
  58:c:/users/mightydubster/ride7/pygmy/profiles/lcd\nokia132x132.c **** #define LCD_NOP         0x25
  59:c:/users/mightydubster/ride7/pygmy/profiles/lcd\nokia132x132.c **** #define LCD_ENDCOL      131
  60:c:/users/mightydubster/ride7/pygmy/profiles/lcd\nokia132x132.c **** #define LCD_ENDROW      131
  61:c:/users/mightydubster/ride7/pygmy/profiles/lcd\nokia132x132.c **** 
  62:c:/users/mightydubster/ride7/pygmy/profiles/lcd\nokia132x132.c **** #define LCD_ROWS	132
  63:c:/users/mightydubster/ride7/pygmy/profiles/lcd\nokia132x132.c **** #define LCD_COLS	132
  64:c:/users/mightydubster/ride7/pygmy/profiles/lcd\nokia132x132.c **** // !!! Note, LCD_CS, LCD_RESET, LCD_SCK_, LCD_MISO, LCD_MOSI
  65:c:/users/mightydubster/ride7/pygmy/profiles/lcd\nokia132x132.c **** // !!!   must be defined in the local copy of pygmy_profile.h
  66:c:/users/mightydubster/ride7/pygmy/profiles/lcd\nokia132x132.c **** 
  67:c:/users/mightydubster/ride7/pygmy/profiles/lcd\nokia132x132.c **** PYGMYGUI pygmyGlobalColors;
  68:c:/users/mightydubster/ride7/pygmy/profiles/lcd\nokia132x132.c **** PYGMYSPIPORT pygmyLCD;
  69:c:/users/mightydubster/ride7/pygmy/profiles/lcd\nokia132x132.c **** 
  70:c:/users/mightydubster/ride7/pygmy/profiles/lcd\nokia132x132.c **** void lcdWriteCommand( u16 uiCommand )
  71:c:/users/mightydubster/ride7/pygmy/profiles/lcd\nokia132x132.c **** {
  84              		.loc 1 71 0
  85              		.cfi_startproc
  86              		@ args = 0, pretend = 0, frame = 0
  87              		@ frame_needed = 0, uses_anonymous_args = 0
  88              	.LVL0:
  89 0000 38B5     		push	{r3, r4, r5, lr}	@
  90              	.LCFI0:
  91              		.cfi_def_cfa_offset 16
  72:c:/users/mightydubster/ride7/pygmy/profiles/lcd\nokia132x132.c ****     pygmyLCD.PortCS->BRR = pygmyLCD.PinCS; // Enables chip
  92              		.loc 1 72 0
  93 0002 094C     		ldr	r4, .L2	@ tmp147,
  94              		.cfi_offset 14, -4
  95              		.cfi_offset 5, -8
ARM GAS  C:\Users\MIGHTY~1\AppData\Local\Temp\ccjdSXZd.s 			page 4


  96              		.cfi_offset 4, -12
  97              		.cfi_offset 3, -16
  98 0004 228A     		ldrh	r2, [r4, #16]	@ D.3874, pygmyLCD.PinCS
  99 0006 2368     		ldr	r3, [r4, #0]	@ D.3872, pygmyLCD.PortCS
  73:c:/users/mightydubster/ride7/pygmy/profiles/lcd\nokia132x132.c ****     pygmyLCD.PortSCK->BRR = pygmyLCD.PinSCK; // verify SCK low
  74:c:/users/mightydubster/ride7/pygmy/profiles/lcd\nokia132x132.c ****     pygmyLCD.PortMOSI->BRR = pygmyLCD.PinMOSI; // LOW MSB ( 9th bit ) is command 
 100              		.loc 1 74 0
 101 0008 A168     		ldr	r1, [r4, #8]	@ D.3878, pygmyLCD.PortMOSI
  72:c:/users/mightydubster/ride7/pygmy/profiles/lcd\nokia132x132.c ****     pygmyLCD.PortCS->BRR = pygmyLCD.PinCS; // Enables chip
 102              		.loc 1 72 0
 103 000a 5A61     		str	r2, [r3, #20]	@ D.3874, D.3872_1->BRR
 104              		.loc 1 74 0
 105 000c A58A     		ldrh	r5, [r4, #20]	@ D.3880, pygmyLCD.PinMOSI
  73:c:/users/mightydubster/ride7/pygmy/profiles/lcd\nokia132x132.c ****     pygmyLCD.PortSCK->BRR = pygmyLCD.PinSCK; // verify SCK low
 106              		.loc 1 73 0
 107 000e 6368     		ldr	r3, [r4, #4]	@ D.3875, pygmyLCD.PortSCK
 108 0010 628A     		ldrh	r2, [r4, #18]	@ D.3877, pygmyLCD.PinSCK
 109 0012 5A61     		str	r2, [r3, #20]	@ D.3877, D.3875_4->BRR
 110              		.loc 1 74 0
 111 0014 4D61     		str	r5, [r1, #20]	@ D.3880, D.3878_7->BRR
  75:c:/users/mightydubster/ride7/pygmy/profiles/lcd\nokia132x132.c ****     pygmyLCD.PortSCK->BSRR= pygmyLCD.PinSCK; // Clock out 9th bit
 112              		.loc 1 75 0
 113 0016 1A61     		str	r2, [r3, #16]	@ D.3877, D.3875_4->BSRR
  76:c:/users/mightydubster/ride7/pygmy/profiles/lcd\nokia132x132.c ****     spiWriteByte( &pygmyLCD, (u8)uiCommand );
 114              		.loc 1 76 0
 115 0018 C1B2     		uxtb	r1, r0	@ uiCommand, uiCommand
 116 001a 2046     		mov	r0, r4	@, tmp147
 117              	.LVL1:
 118 001c FFF7FEFF 		bl	spiWriteByte	@
  77:c:/users/mightydubster/ride7/pygmy/profiles/lcd\nokia132x132.c ****     pygmyLCD.PortCS->BSRR = pygmyLCD.PinCS; // Disables chip
 119              		.loc 1 77 0
 120 0020 2368     		ldr	r3, [r4, #0]	@ D.3872, pygmyLCD.PortCS
 121 0022 228A     		ldrh	r2, [r4, #16]	@ D.3874, pygmyLCD.PinCS
 122 0024 1A61     		str	r2, [r3, #16]	@ D.3874, D.3872_15->BSRR
  78:c:/users/mightydubster/ride7/pygmy/profiles/lcd\nokia132x132.c **** }
 123              		.loc 1 78 0
 124 0026 38BD     		pop	{r3, r4, r5, pc}	@
 125              	.L3:
 126              		.align	2
 127              	.L2:
 128 0028 00000000 		.word	pygmyLCD
 129              		.cfi_endproc
 130              	.LFE0:
 131              		.size	lcdWriteCommand, .-lcdWriteCommand
 132              		.section	.text.lcdWriteData,"ax",%progbits
 133              		.align	1
 134              		.global	lcdWriteData
 135              		.thumb
 136              		.thumb_func
 137              		.type	lcdWriteData, %function
 138              	lcdWriteData:
 139              	.LFB1:
  79:c:/users/mightydubster/ride7/pygmy/profiles/lcd\nokia132x132.c **** 
  80:c:/users/mightydubster/ride7/pygmy/profiles/lcd\nokia132x132.c **** void lcdWriteData( u16 uiData )
  81:c:/users/mightydubster/ride7/pygmy/profiles/lcd\nokia132x132.c **** {
 140              		.loc 1 81 0
 141              		.cfi_startproc
ARM GAS  C:\Users\MIGHTY~1\AppData\Local\Temp\ccjdSXZd.s 			page 5


 142              		@ args = 0, pretend = 0, frame = 0
 143              		@ frame_needed = 0, uses_anonymous_args = 0
 144              	.LVL2:
 145 0000 38B5     		push	{r3, r4, r5, lr}	@
 146              	.LCFI1:
 147              		.cfi_def_cfa_offset 16
  82:c:/users/mightydubster/ride7/pygmy/profiles/lcd\nokia132x132.c ****     pygmyLCD.PortCS->BRR = pygmyLCD.PinCS; // Enables chip
 148              		.loc 1 82 0
 149 0002 094C     		ldr	r4, .L5	@ tmp147,
 150              		.cfi_offset 14, -4
 151              		.cfi_offset 5, -8
 152              		.cfi_offset 4, -12
 153              		.cfi_offset 3, -16
 154 0004 228A     		ldrh	r2, [r4, #16]	@ D.3864, pygmyLCD.PinCS
 155 0006 2368     		ldr	r3, [r4, #0]	@ D.3862, pygmyLCD.PortCS
  83:c:/users/mightydubster/ride7/pygmy/profiles/lcd\nokia132x132.c ****     pygmyLCD.PortSCK->BRR = pygmyLCD.PinSCK; // verify SCK low
  84:c:/users/mightydubster/ride7/pygmy/profiles/lcd\nokia132x132.c ****     pygmyLCD.PortMOSI->BSRR = pygmyLCD.PinMOSI; // HIGH MSB ( 9th bit ) is data 
 156              		.loc 1 84 0
 157 0008 A168     		ldr	r1, [r4, #8]	@ D.3868, pygmyLCD.PortMOSI
  82:c:/users/mightydubster/ride7/pygmy/profiles/lcd\nokia132x132.c ****     pygmyLCD.PortCS->BRR = pygmyLCD.PinCS; // Enables chip
 158              		.loc 1 82 0
 159 000a 5A61     		str	r2, [r3, #20]	@ D.3864, D.3862_1->BRR
 160              		.loc 1 84 0
 161 000c A58A     		ldrh	r5, [r4, #20]	@ D.3870, pygmyLCD.PinMOSI
  83:c:/users/mightydubster/ride7/pygmy/profiles/lcd\nokia132x132.c ****     pygmyLCD.PortSCK->BRR = pygmyLCD.PinSCK; // verify SCK low
 162              		.loc 1 83 0
 163 000e 628A     		ldrh	r2, [r4, #18]	@ D.3867, pygmyLCD.PinSCK
 164 0010 6368     		ldr	r3, [r4, #4]	@ D.3865, pygmyLCD.PortSCK
 165 0012 5A61     		str	r2, [r3, #20]	@ D.3867, D.3865_4->BRR
 166              		.loc 1 84 0
 167 0014 0D61     		str	r5, [r1, #16]	@ D.3870, D.3868_7->BSRR
  85:c:/users/mightydubster/ride7/pygmy/profiles/lcd\nokia132x132.c ****     pygmyLCD.PortSCK->BSRR = pygmyLCD.PinSCK; // Clock out 9th bit
 168              		.loc 1 85 0
 169 0016 1A61     		str	r2, [r3, #16]	@ D.3867, D.3865_4->BSRR
  86:c:/users/mightydubster/ride7/pygmy/profiles/lcd\nokia132x132.c ****     spiWriteByte( &pygmyLCD, (u8)uiData );
 170              		.loc 1 86 0
 171 0018 C1B2     		uxtb	r1, r0	@ uiData, uiData
 172 001a 2046     		mov	r0, r4	@, tmp147
 173              	.LVL3:
 174 001c FFF7FEFF 		bl	spiWriteByte	@
  87:c:/users/mightydubster/ride7/pygmy/profiles/lcd\nokia132x132.c ****     pygmyLCD.PortCS->BSRR = pygmyLCD.PinCS; // Disables chip
 175              		.loc 1 87 0
 176 0020 2368     		ldr	r3, [r4, #0]	@ D.3862, pygmyLCD.PortCS
 177 0022 228A     		ldrh	r2, [r4, #16]	@ D.3864, pygmyLCD.PinCS
 178 0024 1A61     		str	r2, [r3, #16]	@ D.3864, D.3862_15->BSRR
  88:c:/users/mightydubster/ride7/pygmy/profiles/lcd\nokia132x132.c **** }
 179              		.loc 1 88 0
 180 0026 38BD     		pop	{r3, r4, r5, pc}	@
 181              	.L6:
 182              		.align	2
 183              	.L5:
 184 0028 00000000 		.word	pygmyLCD
 185              		.cfi_endproc
 186              	.LFE1:
 187              		.size	lcdWriteData, .-lcdWriteData
 188              		.section	.text.lcdDrawPixel,"ax",%progbits
 189              		.align	1
ARM GAS  C:\Users\MIGHTY~1\AppData\Local\Temp\ccjdSXZd.s 			page 6


 190              		.global	lcdDrawPixel
 191              		.thumb
 192              		.thumb_func
 193              		.type	lcdDrawPixel, %function
 194              	lcdDrawPixel:
 195              	.LFB3:
  89:c:/users/mightydubster/ride7/pygmy/profiles/lcd\nokia132x132.c **** 
  90:c:/users/mightydubster/ride7/pygmy/profiles/lcd\nokia132x132.c **** void lcdInit( void )
  91:c:/users/mightydubster/ride7/pygmy/profiles/lcd\nokia132x132.c **** {	
  92:c:/users/mightydubster/ride7/pygmy/profiles/lcd\nokia132x132.c ****     spiConfig( &pygmyLCD, LCD_CS, LCD_SCK, LCD_MISO, LCD_MOSI );
  93:c:/users/mightydubster/ride7/pygmy/profiles/lcd\nokia132x132.c ****     pinConfig( LCD_RESET, OUT ); // We will use USART1_RTS as CS
  94:c:/users/mightydubster/ride7/pygmy/profiles/lcd\nokia132x132.c ****    
  95:c:/users/mightydubster/ride7/pygmy/profiles/lcd\nokia132x132.c ****     setPin( LCD_RESET, LOW );
  96:c:/users/mightydubster/ride7/pygmy/profiles/lcd\nokia132x132.c ****     delay( 2000 ); // microseconds
  97:c:/users/mightydubster/ride7/pygmy/profiles/lcd\nokia132x132.c ****     setPin( LCD_RESET, HIGH );
  98:c:/users/mightydubster/ride7/pygmy/profiles/lcd\nokia132x132.c ****     delay( 2000 ); // microseconds
  99:c:/users/mightydubster/ride7/pygmy/profiles/lcd\nokia132x132.c ****     lcdWriteCommand( LCD_DISCTL );
 100:c:/users/mightydubster/ride7/pygmy/profiles/lcd\nokia132x132.c ****     lcdWriteData( 0x0C );   		
 101:c:/users/mightydubster/ride7/pygmy/profiles/lcd\nokia132x132.c **** 	lcdWriteData( 0x20 );    
 102:c:/users/mightydubster/ride7/pygmy/profiles/lcd\nokia132x132.c **** 	lcdWriteData( 0x00 );
 103:c:/users/mightydubster/ride7/pygmy/profiles/lcd\nokia132x132.c **** 	lcdWriteData( 0x01 );
 104:c:/users/mightydubster/ride7/pygmy/profiles/lcd\nokia132x132.c ****     
 105:c:/users/mightydubster/ride7/pygmy/profiles/lcd\nokia132x132.c ****     lcdWriteCommand( LCD_OSCON );  	
 106:c:/users/mightydubster/ride7/pygmy/profiles/lcd\nokia132x132.c ****     lcdWriteCommand( LCD_SLPOUT );  
 107:c:/users/mightydubster/ride7/pygmy/profiles/lcd\nokia132x132.c ****     lcdWriteCommand( LCD_PWRCTR );  // all on
 108:c:/users/mightydubster/ride7/pygmy/profiles/lcd\nokia132x132.c ****     lcdWriteData( 0x0F );    		// 
 109:c:/users/mightydubster/ride7/pygmy/profiles/lcd\nokia132x132.c **** 	 
 110:c:/users/mightydubster/ride7/pygmy/profiles/lcd\nokia132x132.c ****     lcdWriteCommand( LCD_DATCTL );
 111:c:/users/mightydubster/ride7/pygmy/profiles/lcd\nokia132x132.c ****     lcdWriteData(0x00);			    // P1
 112:c:/users/mightydubster/ride7/pygmy/profiles/lcd\nokia132x132.c **** 	lcdWriteData(0x01);   		    // P2, Alternate RGB arrangement
 113:c:/users/mightydubster/ride7/pygmy/profiles/lcd\nokia132x132.c **** 	lcdWriteData(0x04);			    // P3, 16-bit Grayscale Type B
 114:c:/users/mightydubster/ride7/pygmy/profiles/lcd\nokia132x132.c **** 	
 115:c:/users/mightydubster/ride7/pygmy/profiles/lcd\nokia132x132.c ****     lcdWriteCommand( LCD_VOLCTR ); 
 116:c:/users/mightydubster/ride7/pygmy/profiles/lcd\nokia132x132.c **** 	lcdWriteData( 0x24 );   		// fine
 117:c:/users/mightydubster/ride7/pygmy/profiles/lcd\nokia132x132.c ****     lcdWriteData( 0x03 );   		// coarse
 118:c:/users/mightydubster/ride7/pygmy/profiles/lcd\nokia132x132.c **** 
 119:c:/users/mightydubster/ride7/pygmy/profiles/lcd\nokia132x132.c ****     lcdWriteCommand( LCD_NOP );  	
 120:c:/users/mightydubster/ride7/pygmy/profiles/lcd\nokia132x132.c ****     lcdWriteCommand( LCD_DISON ); 
 121:c:/users/mightydubster/ride7/pygmy/profiles/lcd\nokia132x132.c ****     lcdSetColor( 0xFF, 0xFF, 0xFF );
 122:c:/users/mightydubster/ride7/pygmy/profiles/lcd\nokia132x132.c ****     lcdBackColor( 0x00, 0x00, 0x00 );
 123:c:/users/mightydubster/ride7/pygmy/profiles/lcd\nokia132x132.c ****     lcdClear();
 124:c:/users/mightydubster/ride7/pygmy/profiles/lcd\nokia132x132.c **** }
 125:c:/users/mightydubster/ride7/pygmy/profiles/lcd\nokia132x132.c **** 
 126:c:/users/mightydubster/ride7/pygmy/profiles/lcd\nokia132x132.c **** void lcdDrawPixel( u16 uiX, u16 uiY )
 127:c:/users/mightydubster/ride7/pygmy/profiles/lcd\nokia132x132.c **** {
 196              		.loc 1 127 0
 197              		.cfi_startproc
 198              		@ args = 0, pretend = 0, frame = 0
 199              		@ frame_needed = 0, uses_anonymous_args = 0
 200              	.LVL4:
 201 0000 70B5     		push	{r4, r5, r6, lr}	@
 202              	.LCFI2:
 203              		.cfi_def_cfa_offset 16
 204              		.loc 1 127 0
 205 0002 0D46     		mov	r5, r1	@ uiY, uiY
 206              		.cfi_offset 14, -4
 207              		.cfi_offset 6, -8
ARM GAS  C:\Users\MIGHTY~1\AppData\Local\Temp\ccjdSXZd.s 			page 7


 208              		.cfi_offset 5, -12
 209              		.cfi_offset 4, -16
 210 0004 0446     		mov	r4, r0	@ uiX, uiX
 128:c:/users/mightydubster/ride7/pygmy/profiles/lcd\nokia132x132.c ****     u8 ucColor;
 129:c:/users/mightydubster/ride7/pygmy/profiles/lcd\nokia132x132.c **** 
 130:c:/users/mightydubster/ride7/pygmy/profiles/lcd\nokia132x132.c ****     lcdWriteCommand( LCD_PAGESET );   // page start/end ram
 211              		.loc 1 130 0
 212 0006 7520     		movs	r0, #117	@,
 213              	.LVL5:
 214 0008 FFF7FEFF 		bl	lcdWriteCommand	@
 215              	.LVL6:
 131:c:/users/mightydubster/ride7/pygmy/profiles/lcd\nokia132x132.c **** 	lcdWriteData( uiY );
 216              		.loc 1 131 0
 217 000c 2846     		mov	r0, r5	@, uiY
 218 000e FFF7FEFF 		bl	lcdWriteData	@
 132:c:/users/mightydubster/ride7/pygmy/profiles/lcd\nokia132x132.c ****     lcdWriteData( uiY );
 219              		.loc 1 132 0
 220 0012 2846     		mov	r0, r5	@, uiY
 221 0014 FFF7FEFF 		bl	lcdWriteData	@
 133:c:/users/mightydubster/ride7/pygmy/profiles/lcd\nokia132x132.c **** 	lcdWriteCommand( LCD_COLSET );   // column start/end ram
 222              		.loc 1 133 0
 223 0018 1520     		movs	r0, #21	@,
 224 001a FFF7FEFF 		bl	lcdWriteCommand	@
 134:c:/users/mightydubster/ride7/pygmy/profiles/lcd\nokia132x132.c **** 	lcdWriteData( uiX );
 225              		.loc 1 134 0
 226 001e 2046     		mov	r0, r4	@, uiX
 227 0020 FFF7FEFF 		bl	lcdWriteData	@
 135:c:/users/mightydubster/ride7/pygmy/profiles/lcd\nokia132x132.c ****     lcdWriteData( uiX );
 228              		.loc 1 135 0
 229 0024 2046     		mov	r0, r4	@, uiX
 136:c:/users/mightydubster/ride7/pygmy/profiles/lcd\nokia132x132.c ****     lcdWriteCommand( LCD_RAMWR );    // write
 137:c:/users/mightydubster/ride7/pygmy/profiles/lcd\nokia132x132.c ****     
 138:c:/users/mightydubster/ride7/pygmy/profiles/lcd\nokia132x132.c ****     lcdWriteData( pygmyGlobalColors.Color.R );
 230              		.loc 1 138 0
 231 0026 094C     		ldr	r4, .L8	@ tmp146,
 135:c:/users/mightydubster/ride7/pygmy/profiles/lcd\nokia132x132.c ****     lcdWriteData( uiX );
 232              		.loc 1 135 0
 233 0028 FFF7FEFF 		bl	lcdWriteData	@
 136:c:/users/mightydubster/ride7/pygmy/profiles/lcd\nokia132x132.c ****     lcdWriteCommand( LCD_RAMWR );    // write
 234              		.loc 1 136 0
 235 002c 5C20     		movs	r0, #92	@,
 236 002e FFF7FEFF 		bl	lcdWriteCommand	@
 237              		.loc 1 138 0
 238 0032 E078     		ldrb	r0, [r4, #3]	@ zero_extendqisi2	@, pygmyGlobalColors.Color.R
 239 0034 FFF7FEFF 		bl	lcdWriteData	@
 240              	.LVL7:
 139:c:/users/mightydubster/ride7/pygmy/profiles/lcd\nokia132x132.c ****     // 0x00B0 | 0x000R = 0x00B
 140:c:/users/mightydubster/ride7/pygmy/profiles/lcd\nokia132x132.c ****     ucColor = ( pygmyGlobalColors.Color.G << 4 ) | pygmyGlobalColors.Color.B;
 241              		.loc 1 140 0
 242 0038 2079     		ldrb	r0, [r4, #4]	@ zero_extendqisi2	@ pygmyGlobalColors.Color.G, pygmyGlobalColors.Color.G
 243 003a 6379     		ldrb	r3, [r4, #5]	@ zero_extendqisi2	@ pygmyGlobalColors.Color.B, pygmyGlobalColors.Color.B
 244 003c 43EA0010 		orr	r0, r3, r0, lsl #4	@, tmp157, pygmyGlobalColors.Color.B, pygmyGlobalColors.Color.G,
 141:c:/users/mightydubster/ride7/pygmy/profiles/lcd\nokia132x132.c ****     lcdWriteData( ucColor );
 245              		.loc 1 141 0
 246 0040 C0B2     		uxtb	r0, r0	@, tmp157
 142:c:/users/mightydubster/ride7/pygmy/profiles/lcd\nokia132x132.c **** 	//lcdWriteData( 0 ); // dummy write   
 143:c:/users/mightydubster/ride7/pygmy/profiles/lcd\nokia132x132.c ****     //lcdWriteCommand( LCD_NOP ); //
ARM GAS  C:\Users\MIGHTY~1\AppData\Local\Temp\ccjdSXZd.s 			page 8


 144:c:/users/mightydubster/ride7/pygmy/profiles/lcd\nokia132x132.c ****     //lcdWriteData( pygmyGlobalColors.Color.R << 4 | pygmyGlobalColors.Color.G );
 145:c:/users/mightydubster/ride7/pygmy/profiles/lcd\nokia132x132.c ****     //lcdWriteData( pygmyGlobalColors.Color.B << 4  );
 146:c:/users/mightydubster/ride7/pygmy/profiles/lcd\nokia132x132.c **** 		
 147:c:/users/mightydubster/ride7/pygmy/profiles/lcd\nokia132x132.c **** }
 247              		.loc 1 147 0
 248 0042 BDE87040 		pop	{r4, r5, r6, lr}	@
 141:c:/users/mightydubster/ride7/pygmy/profiles/lcd\nokia132x132.c ****     lcdWriteData( ucColor );
 249              		.loc 1 141 0
 250 0046 FFF7FEBF 		b	lcdWriteData	@
 251              	.LVL8:
 252              	.L9:
 253 004a 00BF     		.align	2
 254              	.L8:
 255 004c 00000000 		.word	pygmyGlobalColors
 256              		.cfi_endproc
 257              	.LFE3:
 258              		.size	lcdDrawPixel, .-lcdDrawPixel
 259              		.section	.text.lcdClearPixel,"ax",%progbits
 260              		.align	1
 261              		.global	lcdClearPixel
 262              		.thumb
 263              		.thumb_func
 264              		.type	lcdClearPixel, %function
 265              	lcdClearPixel:
 266              	.LFB4:
 148:c:/users/mightydubster/ride7/pygmy/profiles/lcd\nokia132x132.c **** 
 149:c:/users/mightydubster/ride7/pygmy/profiles/lcd\nokia132x132.c **** void lcdClearPixel( u16 uiX, u16 uiY )
 150:c:/users/mightydubster/ride7/pygmy/profiles/lcd\nokia132x132.c **** {
 267              		.loc 1 150 0
 268              		.cfi_startproc
 269              		@ args = 0, pretend = 0, frame = 0
 270              		@ frame_needed = 0, uses_anonymous_args = 0
 271              	.LVL9:
 272 0000 70B5     		push	{r4, r5, r6, lr}	@
 273              	.LCFI3:
 274              		.cfi_def_cfa_offset 16
 275              		.loc 1 150 0
 276 0002 0D46     		mov	r5, r1	@ uiY, uiY
 277              		.cfi_offset 14, -4
 278              		.cfi_offset 6, -8
 279              		.cfi_offset 5, -12
 280              		.cfi_offset 4, -16
 281 0004 0446     		mov	r4, r0	@ uiX, uiX
 151:c:/users/mightydubster/ride7/pygmy/profiles/lcd\nokia132x132.c ****     u8 ucColor;
 152:c:/users/mightydubster/ride7/pygmy/profiles/lcd\nokia132x132.c **** 
 153:c:/users/mightydubster/ride7/pygmy/profiles/lcd\nokia132x132.c ****     lcdWriteCommand( LCD_PAGESET );   // page start/end ram
 282              		.loc 1 153 0
 283 0006 7520     		movs	r0, #117	@,
 284              	.LVL10:
 285 0008 FFF7FEFF 		bl	lcdWriteCommand	@
 286              	.LVL11:
 154:c:/users/mightydubster/ride7/pygmy/profiles/lcd\nokia132x132.c **** 	lcdWriteData( uiY );
 287              		.loc 1 154 0
 288 000c 2846     		mov	r0, r5	@, uiY
 289 000e FFF7FEFF 		bl	lcdWriteData	@
 155:c:/users/mightydubster/ride7/pygmy/profiles/lcd\nokia132x132.c ****     lcdWriteData( uiY );
 290              		.loc 1 155 0
ARM GAS  C:\Users\MIGHTY~1\AppData\Local\Temp\ccjdSXZd.s 			page 9


 291 0012 2846     		mov	r0, r5	@, uiY
 292 0014 FFF7FEFF 		bl	lcdWriteData	@
 156:c:/users/mightydubster/ride7/pygmy/profiles/lcd\nokia132x132.c **** 	lcdWriteCommand( LCD_COLSET );   // column start/end ram
 293              		.loc 1 156 0
 294 0018 1520     		movs	r0, #21	@,
 295 001a FFF7FEFF 		bl	lcdWriteCommand	@
 157:c:/users/mightydubster/ride7/pygmy/profiles/lcd\nokia132x132.c **** 	lcdWriteData( uiX );
 296              		.loc 1 157 0
 297 001e 2046     		mov	r0, r4	@, uiX
 298 0020 FFF7FEFF 		bl	lcdWriteData	@
 158:c:/users/mightydubster/ride7/pygmy/profiles/lcd\nokia132x132.c ****     lcdWriteData( uiX );
 299              		.loc 1 158 0
 300 0024 2046     		mov	r0, r4	@, uiX
 159:c:/users/mightydubster/ride7/pygmy/profiles/lcd\nokia132x132.c ****     lcdWriteCommand( LCD_RAMWR );    // write
 160:c:/users/mightydubster/ride7/pygmy/profiles/lcd\nokia132x132.c ****     
 161:c:/users/mightydubster/ride7/pygmy/profiles/lcd\nokia132x132.c ****     lcdWriteData( pygmyGlobalColors.BackColor.R );
 301              		.loc 1 161 0
 302 0026 0A4C     		ldr	r4, .L11	@ tmp146,
 158:c:/users/mightydubster/ride7/pygmy/profiles/lcd\nokia132x132.c ****     lcdWriteData( uiX );
 303              		.loc 1 158 0
 304 0028 FFF7FEFF 		bl	lcdWriteData	@
 159:c:/users/mightydubster/ride7/pygmy/profiles/lcd\nokia132x132.c ****     lcdWriteCommand( LCD_RAMWR );    // write
 305              		.loc 1 159 0
 306 002c 5C20     		movs	r0, #92	@,
 307 002e FFF7FEFF 		bl	lcdWriteCommand	@
 308              		.loc 1 161 0
 309 0032 2078     		ldrb	r0, [r4, #0]	@ zero_extendqisi2	@, pygmyGlobalColors.BackColor.R
 310 0034 FFF7FEFF 		bl	lcdWriteData	@
 311              	.LVL12:
 162:c:/users/mightydubster/ride7/pygmy/profiles/lcd\nokia132x132.c ****     // 0x00B0 | 0x000R = 0x00B
 163:c:/users/mightydubster/ride7/pygmy/profiles/lcd\nokia132x132.c ****     ucColor = ( pygmyGlobalColors.BackColor.G << 4 ) | pygmyGlobalColors.BackColor.B;
 312              		.loc 1 163 0
 313 0038 6078     		ldrb	r0, [r4, #1]	@ zero_extendqisi2	@ pygmyGlobalColors.BackColor.G, pygmyGlobalColors.BackColor.
 314 003a A378     		ldrb	r3, [r4, #2]	@ zero_extendqisi2	@ pygmyGlobalColors.BackColor.B, pygmyGlobalColors.BackColor.
 315 003c 43EA0010 		orr	r0, r3, r0, lsl #4	@, tmp157, pygmyGlobalColors.BackColor.B, pygmyGlobalColors.BackColor.G,
 164:c:/users/mightydubster/ride7/pygmy/profiles/lcd\nokia132x132.c ****     lcdWriteData( ucColor );
 316              		.loc 1 164 0
 317 0040 C0B2     		uxtb	r0, r0	@, tmp157
 318 0042 FFF7FEFF 		bl	lcdWriteData	@
 319              	.LVL13:
 165:c:/users/mightydubster/ride7/pygmy/profiles/lcd\nokia132x132.c **** 	lcdWriteData( 0 ); // dummy write   
 320              		.loc 1 165 0
 321 0046 0020     		movs	r0, #0	@,
 166:c:/users/mightydubster/ride7/pygmy/profiles/lcd\nokia132x132.c **** 
 167:c:/users/mightydubster/ride7/pygmy/profiles/lcd\nokia132x132.c ****     //lcdWriteCommand( LCD_NOP ); //
 168:c:/users/mightydubster/ride7/pygmy/profiles/lcd\nokia132x132.c ****     //lcdWriteData( pygmyGlobalColors.Color.R << 4 | pygmyGlobalColors.Color.G );
 169:c:/users/mightydubster/ride7/pygmy/profiles/lcd\nokia132x132.c ****     //lcdWriteData( pygmyGlobalColors.Color.B << 4  );
 170:c:/users/mightydubster/ride7/pygmy/profiles/lcd\nokia132x132.c **** 		
 171:c:/users/mightydubster/ride7/pygmy/profiles/lcd\nokia132x132.c **** }
 322              		.loc 1 171 0
 323 0048 BDE87040 		pop	{r4, r5, r6, lr}	@
 165:c:/users/mightydubster/ride7/pygmy/profiles/lcd\nokia132x132.c **** 	lcdWriteData( 0 ); // dummy write   
 324              		.loc 1 165 0
 325 004c FFF7FEBF 		b	lcdWriteData	@
 326              	.L12:
 327              		.align	2
 328              	.L11:
ARM GAS  C:\Users\MIGHTY~1\AppData\Local\Temp\ccjdSXZd.s 			page 10


 329 0050 00000000 		.word	pygmyGlobalColors
 330              		.cfi_endproc
 331              	.LFE4:
 332              		.size	lcdClearPixel, .-lcdClearPixel
 333              		.section	.text.lcdGetFont,"ax",%progbits
 334              		.align	1
 335              		.global	lcdGetFont
 336              		.thumb
 337              		.thumb_func
 338              		.type	lcdGetFont, %function
 339              	lcdGetFont:
 340              	.LFB5:
 172:c:/users/mightydubster/ride7/pygmy/profiles/lcd\nokia132x132.c **** 
 173:c:/users/mightydubster/ride7/pygmy/profiles/lcd\nokia132x132.c **** void *lcdGetFont( void )
 174:c:/users/mightydubster/ride7/pygmy/profiles/lcd\nokia132x132.c **** {
 341              		.loc 1 174 0
 342              		.cfi_startproc
 343              		@ args = 0, pretend = 0, frame = 0
 344              		@ frame_needed = 0, uses_anonymous_args = 0
 345              		@ link register save eliminated.
 175:c:/users/mightydubster/ride7/pygmy/profiles/lcd\nokia132x132.c ****     return( pygmyGlobalColors.Font );
 176:c:/users/mightydubster/ride7/pygmy/profiles/lcd\nokia132x132.c **** }
 346              		.loc 1 176 0
 347 0000 014B     		ldr	r3, .L14	@ tmp136,
 348 0002 D868     		ldr	r0, [r3, #12]	@, pygmyGlobalColors.Font
 349 0004 7047     		bx	lr	@
 350              	.L15:
 351 0006 00BF     		.align	2
 352              	.L14:
 353 0008 00000000 		.word	pygmyGlobalColors
 354              		.cfi_endproc
 355              	.LFE5:
 356              		.size	lcdGetFont, .-lcdGetFont
 357              		.section	.text.lcdSetFont,"ax",%progbits
 358              		.align	1
 359              		.global	lcdSetFont
 360              		.thumb
 361              		.thumb_func
 362              		.type	lcdSetFont, %function
 363              	lcdSetFont:
 364              	.LFB6:
 177:c:/users/mightydubster/ride7/pygmy/profiles/lcd\nokia132x132.c **** 
 178:c:/users/mightydubster/ride7/pygmy/profiles/lcd\nokia132x132.c **** void lcdSetFont( void *pygmyFont )
 179:c:/users/mightydubster/ride7/pygmy/profiles/lcd\nokia132x132.c **** {
 365              		.loc 1 179 0
 366              		.cfi_startproc
 367              		@ args = 0, pretend = 0, frame = 0
 368              		@ frame_needed = 0, uses_anonymous_args = 0
 369              		@ link register save eliminated.
 370              	.LVL14:
 180:c:/users/mightydubster/ride7/pygmy/profiles/lcd\nokia132x132.c ****    pygmyGlobalColors.Font = pygmyFont;   
 371              		.loc 1 180 0
 372 0000 014B     		ldr	r3, .L17	@ tmp135,
 373 0002 D860     		str	r0, [r3, #12]	@ pygmyFont, pygmyGlobalColors.Font
 181:c:/users/mightydubster/ride7/pygmy/profiles/lcd\nokia132x132.c **** }
 374              		.loc 1 181 0
 375 0004 7047     		bx	lr	@
ARM GAS  C:\Users\MIGHTY~1\AppData\Local\Temp\ccjdSXZd.s 			page 11


 376              	.L18:
 377 0006 00BF     		.align	2
 378              	.L17:
 379 0008 00000000 		.word	pygmyGlobalColors
 380              		.cfi_endproc
 381              	.LFE6:
 382              		.size	lcdSetFont, .-lcdSetFont
 383              		.section	.text.lcdSetCursor,"ax",%progbits
 384              		.align	1
 385              		.global	lcdSetCursor
 386              		.thumb
 387              		.thumb_func
 388              		.type	lcdSetCursor, %function
 389              	lcdSetCursor:
 390              	.LFB7:
 182:c:/users/mightydubster/ride7/pygmy/profiles/lcd\nokia132x132.c **** 
 183:c:/users/mightydubster/ride7/pygmy/profiles/lcd\nokia132x132.c **** void lcdSetCursor( u16 uiX, u16 uiY )
 184:c:/users/mightydubster/ride7/pygmy/profiles/lcd\nokia132x132.c **** {
 391              		.loc 1 184 0
 392              		.cfi_startproc
 393              		@ args = 0, pretend = 0, frame = 0
 394              		@ frame_needed = 0, uses_anonymous_args = 0
 395              		@ link register save eliminated.
 396              	.LVL15:
 185:c:/users/mightydubster/ride7/pygmy/profiles/lcd\nokia132x132.c ****     pygmyGlobalColors.Cursor.X = uiX;
 397              		.loc 1 185 0
 398 0000 014B     		ldr	r3, .L20	@ tmp135,
 399 0002 D880     		strh	r0, [r3, #6]	@ movhi	@ uiX, pygmyGlobalColors.Cursor.X
 186:c:/users/mightydubster/ride7/pygmy/profiles/lcd\nokia132x132.c ****     pygmyGlobalColors.Cursor.Y = uiY;
 400              		.loc 1 186 0
 401 0004 1981     		strh	r1, [r3, #8]	@ movhi	@ uiY, pygmyGlobalColors.Cursor.Y
 187:c:/users/mightydubster/ride7/pygmy/profiles/lcd\nokia132x132.c **** }
 402              		.loc 1 187 0
 403 0006 7047     		bx	lr	@
 404              	.L21:
 405              		.align	2
 406              	.L20:
 407 0008 00000000 		.word	pygmyGlobalColors
 408              		.cfi_endproc
 409              	.LFE7:
 410              		.size	lcdSetCursor, .-lcdSetCursor
 411              		.section	.text.lcdGetCursorX,"ax",%progbits
 412              		.align	1
 413              		.global	lcdGetCursorX
 414              		.thumb
 415              		.thumb_func
 416              		.type	lcdGetCursorX, %function
 417              	lcdGetCursorX:
 418              	.LFB8:
 188:c:/users/mightydubster/ride7/pygmy/profiles/lcd\nokia132x132.c **** 
 189:c:/users/mightydubster/ride7/pygmy/profiles/lcd\nokia132x132.c **** u16 lcdGetCursorX( void )
 190:c:/users/mightydubster/ride7/pygmy/profiles/lcd\nokia132x132.c **** {
 419              		.loc 1 190 0
 420              		.cfi_startproc
 421              		@ args = 0, pretend = 0, frame = 0
 422              		@ frame_needed = 0, uses_anonymous_args = 0
 423              		@ link register save eliminated.
ARM GAS  C:\Users\MIGHTY~1\AppData\Local\Temp\ccjdSXZd.s 			page 12


 191:c:/users/mightydubster/ride7/pygmy/profiles/lcd\nokia132x132.c ****     return( pygmyGlobalColors.Cursor.X );
 192:c:/users/mightydubster/ride7/pygmy/profiles/lcd\nokia132x132.c **** }
 424              		.loc 1 192 0
 425 0000 014B     		ldr	r3, .L23	@ tmp136,
 426 0002 D888     		ldrh	r0, [r3, #6]	@, pygmyGlobalColors.Cursor.X
 427 0004 7047     		bx	lr	@
 428              	.L24:
 429 0006 00BF     		.align	2
 430              	.L23:
 431 0008 00000000 		.word	pygmyGlobalColors
 432              		.cfi_endproc
 433              	.LFE8:
 434              		.size	lcdGetCursorX, .-lcdGetCursorX
 435              		.section	.text.lcdGetCursorY,"ax",%progbits
 436              		.align	1
 437              		.global	lcdGetCursorY
 438              		.thumb
 439              		.thumb_func
 440              		.type	lcdGetCursorY, %function
 441              	lcdGetCursorY:
 442              	.LFB9:
 193:c:/users/mightydubster/ride7/pygmy/profiles/lcd\nokia132x132.c **** 
 194:c:/users/mightydubster/ride7/pygmy/profiles/lcd\nokia132x132.c **** u16 lcdGetCursorY( void )
 195:c:/users/mightydubster/ride7/pygmy/profiles/lcd\nokia132x132.c **** {
 443              		.loc 1 195 0
 444              		.cfi_startproc
 445              		@ args = 0, pretend = 0, frame = 0
 446              		@ frame_needed = 0, uses_anonymous_args = 0
 447              		@ link register save eliminated.
 196:c:/users/mightydubster/ride7/pygmy/profiles/lcd\nokia132x132.c ****     return( pygmyGlobalColors.Cursor.Y );
 197:c:/users/mightydubster/ride7/pygmy/profiles/lcd\nokia132x132.c **** }
 448              		.loc 1 197 0
 449 0000 014B     		ldr	r3, .L26	@ tmp136,
 450 0002 1889     		ldrh	r0, [r3, #8]	@, pygmyGlobalColors.Cursor.Y
 451 0004 7047     		bx	lr	@
 452              	.L27:
 453 0006 00BF     		.align	2
 454              	.L26:
 455 0008 00000000 		.word	pygmyGlobalColors
 456              		.cfi_endproc
 457              	.LFE9:
 458              		.size	lcdGetCursorY, .-lcdGetCursorY
 459              		.section	.text.lcdOn,"ax",%progbits
 460              		.align	1
 461              		.global	lcdOn
 462              		.thumb
 463              		.thumb_func
 464              		.type	lcdOn, %function
 465              	lcdOn:
 466              	.LFB10:
 198:c:/users/mightydubster/ride7/pygmy/profiles/lcd\nokia132x132.c **** 
 199:c:/users/mightydubster/ride7/pygmy/profiles/lcd\nokia132x132.c **** void lcdOn( void )
 200:c:/users/mightydubster/ride7/pygmy/profiles/lcd\nokia132x132.c **** {
 467              		.loc 1 200 0
 468              		.cfi_startproc
 469              		@ args = 0, pretend = 0, frame = 0
 470              		@ frame_needed = 0, uses_anonymous_args = 0
ARM GAS  C:\Users\MIGHTY~1\AppData\Local\Temp\ccjdSXZd.s 			page 13


 471              		@ link register save eliminated.
 201:c:/users/mightydubster/ride7/pygmy/profiles/lcd\nokia132x132.c ****     lcdWriteCommand( LCD_DISON );
 472              		.loc 1 201 0
 473 0000 AF20     		movs	r0, #175	@,
 202:c:/users/mightydubster/ride7/pygmy/profiles/lcd\nokia132x132.c **** }
 474              		.loc 1 202 0
 201:c:/users/mightydubster/ride7/pygmy/profiles/lcd\nokia132x132.c ****     lcdWriteCommand( LCD_DISON );
 475              		.loc 1 201 0
 476 0002 FFF7FEBF 		b	lcdWriteCommand	@
 477              		.cfi_endproc
 478              	.LFE10:
 479              		.size	lcdOn, .-lcdOn
 480              		.section	.text.lcdOff,"ax",%progbits
 481              		.align	1
 482              		.global	lcdOff
 483              		.thumb
 484              		.thumb_func
 485              		.type	lcdOff, %function
 486              	lcdOff:
 487              	.LFB11:
 203:c:/users/mightydubster/ride7/pygmy/profiles/lcd\nokia132x132.c **** 
 204:c:/users/mightydubster/ride7/pygmy/profiles/lcd\nokia132x132.c **** void lcdOff( void )
 205:c:/users/mightydubster/ride7/pygmy/profiles/lcd\nokia132x132.c **** {
 488              		.loc 1 205 0
 489              		.cfi_startproc
 490              		@ args = 0, pretend = 0, frame = 0
 491              		@ frame_needed = 0, uses_anonymous_args = 0
 492              		@ link register save eliminated.
 206:c:/users/mightydubster/ride7/pygmy/profiles/lcd\nokia132x132.c ****     lcdWriteCommand( LCD_DISOFF );
 493              		.loc 1 206 0
 494 0000 AE20     		movs	r0, #174	@,
 207:c:/users/mightydubster/ride7/pygmy/profiles/lcd\nokia132x132.c **** }
 495              		.loc 1 207 0
 206:c:/users/mightydubster/ride7/pygmy/profiles/lcd\nokia132x132.c ****     lcdWriteCommand( LCD_DISOFF );
 496              		.loc 1 206 0
 497 0002 FFF7FEBF 		b	lcdWriteCommand	@
 498              		.cfi_endproc
 499              	.LFE11:
 500              		.size	lcdOff, .-lcdOff
 501              		.section	.text.lcdSetBPP,"ax",%progbits
 502              		.align	1
 503              		.global	lcdSetBPP
 504              		.thumb
 505              		.thumb_func
 506              		.type	lcdSetBPP, %function
 507              	lcdSetBPP:
 508              	.LFB12:
 208:c:/users/mightydubster/ride7/pygmy/profiles/lcd\nokia132x132.c **** 
 209:c:/users/mightydubster/ride7/pygmy/profiles/lcd\nokia132x132.c **** void lcdSetBPP( u8 ucBPP )
 210:c:/users/mightydubster/ride7/pygmy/profiles/lcd\nokia132x132.c **** {
 509              		.loc 1 210 0
 510              		.cfi_startproc
 511              		@ args = 0, pretend = 0, frame = 0
 512              		@ frame_needed = 0, uses_anonymous_args = 0
 513              		@ link register save eliminated.
 514              	.LVL16:
 211:c:/users/mightydubster/ride7/pygmy/profiles/lcd\nokia132x132.c ****     pygmyGlobalColors.BPP = ucBPP;
ARM GAS  C:\Users\MIGHTY~1\AppData\Local\Temp\ccjdSXZd.s 			page 14


 515              		.loc 1 211 0
 516 0000 014B     		ldr	r3, .L31	@ tmp134,
 517 0002 1874     		strb	r0, [r3, #16]	@ ucBPP, pygmyGlobalColors.BPP
 212:c:/users/mightydubster/ride7/pygmy/profiles/lcd\nokia132x132.c **** }
 518              		.loc 1 212 0
 519 0004 7047     		bx	lr	@
 520              	.L32:
 521 0006 00BF     		.align	2
 522              	.L31:
 523 0008 00000000 		.word	pygmyGlobalColors
 524              		.cfi_endproc
 525              	.LFE12:
 526              		.size	lcdSetBPP, .-lcdSetBPP
 527              		.section	.text.lcdBackColor,"ax",%progbits
 528              		.align	1
 529              		.global	lcdBackColor
 530              		.thumb
 531              		.thumb_func
 532              		.type	lcdBackColor, %function
 533              	lcdBackColor:
 534              	.LFB13:
 213:c:/users/mightydubster/ride7/pygmy/profiles/lcd\nokia132x132.c **** 
 214:c:/users/mightydubster/ride7/pygmy/profiles/lcd\nokia132x132.c **** void lcdBackColor( u8 ucR, u8 ucG, u8 ucB )
 215:c:/users/mightydubster/ride7/pygmy/profiles/lcd\nokia132x132.c **** {
 535              		.loc 1 215 0
 536              		.cfi_startproc
 537              		@ args = 0, pretend = 0, frame = 0
 538              		@ frame_needed = 0, uses_anonymous_args = 0
 539              	.LVL17:
 540 0000 10B5     		push	{r4, lr}	@
 541              	.LCFI4:
 542              		.cfi_def_cfa_offset 8
 216:c:/users/mightydubster/ride7/pygmy/profiles/lcd\nokia132x132.c ****     /*if( pygmyGlobalColors.BPP == PYGMY_PBM_1BPP ){
 217:c:/users/mightydubster/ride7/pygmy/profiles/lcd\nokia132x132.c ****         if( ucR || ucG || ucB ){
 218:c:/users/mightydubster/ride7/pygmy/profiles/lcd\nokia132x132.c ****             ucR = 0x0F;
 219:c:/users/mightydubster/ride7/pygmy/profiles/lcd\nokia132x132.c ****             ucG = 0x0F;
 220:c:/users/mightydubster/ride7/pygmy/profiles/lcd\nokia132x132.c ****             ucB = 0x0F;
 221:c:/users/mightydubster/ride7/pygmy/profiles/lcd\nokia132x132.c ****         } // if
 222:c:/users/mightydubster/ride7/pygmy/profiles/lcd\nokia132x132.c ****     } else */
 223:c:/users/mightydubster/ride7/pygmy/profiles/lcd\nokia132x132.c ****     if( pygmyGlobalColors.BPP == PYGMY_PBM_8BPP ){
 543              		.loc 1 223 0
 544 0002 0D4B     		ldr	r3, .L37	@ tmp137,
 545 0004 1C7C     		ldrb	r4, [r3, #16]	@ zero_extendqisi2	@ D.3826, pygmyGlobalColors.BPP
 546              		.cfi_offset 14, -4
 547              		.cfi_offset 4, -8
 548 0006 022C     		cmp	r4, #2	@ D.3826,
 549 0008 07D1     		bne	.L34	@,
 224:c:/users/mightydubster/ride7/pygmy/profiles/lcd\nokia132x132.c ****         ucR *= 2;
 550              		.loc 1 224 0
 551 000a 4000     		lsls	r0, r0, #1	@ tmp139, ucR,
 552              	.LVL18:
 225:c:/users/mightydubster/ride7/pygmy/profiles/lcd\nokia132x132.c ****         ucG *= 3;
 553              		.loc 1 225 0
 554 000c 01EB4101 		add	r1, r1, r1, lsl #1	@, tmp144, ucG, ucG,
 555              	.LVL19:
 226:c:/users/mightydubster/ride7/pygmy/profiles/lcd\nokia132x132.c ****         ucB *= 2;
 556              		.loc 1 226 0
ARM GAS  C:\Users\MIGHTY~1\AppData\Local\Temp\ccjdSXZd.s 			page 15


 557 0010 5200     		lsls	r2, r2, #1	@ tmp146, ucB,
 558              	.LVL20:
 224:c:/users/mightydubster/ride7/pygmy/profiles/lcd\nokia132x132.c ****         ucR *= 2;
 559              		.loc 1 224 0
 560 0012 C0B2     		uxtb	r0, r0	@ ucR, tmp139
 561              	.LVL21:
 225:c:/users/mightydubster/ride7/pygmy/profiles/lcd\nokia132x132.c ****         ucG *= 3;
 562              		.loc 1 225 0
 563 0014 C9B2     		uxtb	r1, r1	@ ucG, tmp144
 564              	.LVL22:
 565              		.loc 1 226 0
 566 0016 D2B2     		uxtb	r2, r2	@ ucB, tmp146
 567              	.LVL23:
 568 0018 0AE0     		b	.L35	@
 569              	.L34:
 227:c:/users/mightydubster/ride7/pygmy/profiles/lcd\nokia132x132.c ****     } else if( pygmyGlobalColors.BPP == PYGMY_PBM_16BPP ){
 570              		.loc 1 227 0
 571 001a 042C     		cmp	r4, #4	@ D.3826,
 572 001c 03D1     		bne	.L36	@,
 228:c:/users/mightydubster/ride7/pygmy/profiles/lcd\nokia132x132.c ****         ucR >>= 1;
 573              		.loc 1 228 0
 574 001e 4008     		lsrs	r0, r0, #1	@ ucR, ucR,
 575              	.LVL24:
 229:c:/users/mightydubster/ride7/pygmy/profiles/lcd\nokia132x132.c ****         ucG >>= 2;
 576              		.loc 1 229 0
 577 0020 8908     		lsrs	r1, r1, #2	@ ucG, ucG,
 578              	.LVL25:
 230:c:/users/mightydubster/ride7/pygmy/profiles/lcd\nokia132x132.c ****         ucB >>= 1;
 579              		.loc 1 230 0
 580 0022 5208     		lsrs	r2, r2, #1	@ ucB, ucB,
 581              	.LVL26:
 582 0024 04E0     		b	.L35	@
 583              	.L36:
 231:c:/users/mightydubster/ride7/pygmy/profiles/lcd\nokia132x132.c ****     } else if( pygmyGlobalColors.BPP == PYGMY_PBM_24BPP ){
 584              		.loc 1 231 0
 585 0026 052C     		cmp	r4, #5	@ D.3826,
 586 0028 02D1     		bne	.L35	@,
 232:c:/users/mightydubster/ride7/pygmy/profiles/lcd\nokia132x132.c ****         ucR >>= 4;
 587              		.loc 1 232 0
 588 002a 0009     		lsrs	r0, r0, #4	@ ucR, ucR,
 589              	.LVL27:
 233:c:/users/mightydubster/ride7/pygmy/profiles/lcd\nokia132x132.c ****         ucG >>= 4;
 590              		.loc 1 233 0
 591 002c 0909     		lsrs	r1, r1, #4	@ ucG, ucG,
 592              	.LVL28:
 234:c:/users/mightydubster/ride7/pygmy/profiles/lcd\nokia132x132.c ****         ucB >>= 4;
 593              		.loc 1 234 0
 594 002e 1209     		lsrs	r2, r2, #4	@ ucB, ucB,
 595              	.LVL29:
 596              	.L35:
 235:c:/users/mightydubster/ride7/pygmy/profiles/lcd\nokia132x132.c ****     } // if
 236:c:/users/mightydubster/ride7/pygmy/profiles/lcd\nokia132x132.c ****     pygmyGlobalColors.BackColor.R = ucR;
 597              		.loc 1 236 0
 598 0030 1870     		strb	r0, [r3, #0]	@ ucR, pygmyGlobalColors.BackColor.R
 237:c:/users/mightydubster/ride7/pygmy/profiles/lcd\nokia132x132.c ****     pygmyGlobalColors.BackColor.G = ucG;
 599              		.loc 1 237 0
 600 0032 5970     		strb	r1, [r3, #1]	@ ucG, pygmyGlobalColors.BackColor.G
ARM GAS  C:\Users\MIGHTY~1\AppData\Local\Temp\ccjdSXZd.s 			page 16


 238:c:/users/mightydubster/ride7/pygmy/profiles/lcd\nokia132x132.c ****     pygmyGlobalColors.BackColor.B = ucB;
 601              		.loc 1 238 0
 602 0034 9A70     		strb	r2, [r3, #2]	@ ucB, pygmyGlobalColors.BackColor.B
 239:c:/users/mightydubster/ride7/pygmy/profiles/lcd\nokia132x132.c **** }
 603              		.loc 1 239 0
 604 0036 10BD     		pop	{r4, pc}	@
 605              	.L38:
 606              		.align	2
 607              	.L37:
 608 0038 00000000 		.word	pygmyGlobalColors
 609              		.cfi_endproc
 610              	.LFE13:
 611              		.size	lcdBackColor, .-lcdBackColor
 612              		.section	.text.lcdSetColor,"ax",%progbits
 613              		.align	1
 614              		.global	lcdSetColor
 615              		.thumb
 616              		.thumb_func
 617              		.type	lcdSetColor, %function
 618              	lcdSetColor:
 619              	.LFB14:
 240:c:/users/mightydubster/ride7/pygmy/profiles/lcd\nokia132x132.c **** 
 241:c:/users/mightydubster/ride7/pygmy/profiles/lcd\nokia132x132.c **** void lcdSetColor( u8 ucR, u8 ucG, u8 ucB )
 242:c:/users/mightydubster/ride7/pygmy/profiles/lcd\nokia132x132.c **** {
 620              		.loc 1 242 0
 621              		.cfi_startproc
 622              		@ args = 0, pretend = 0, frame = 0
 623              		@ frame_needed = 0, uses_anonymous_args = 0
 624              	.LVL30:
 625 0000 10B5     		push	{r4, lr}	@
 626              	.LCFI5:
 627              		.cfi_def_cfa_offset 8
 243:c:/users/mightydubster/ride7/pygmy/profiles/lcd\nokia132x132.c ****    /* if( pygmyGlobalColors.BPP == PYGMY_PBM_1BPP ){
 244:c:/users/mightydubster/ride7/pygmy/profiles/lcd\nokia132x132.c ****         if( ucR || ucG || ucB ){
 245:c:/users/mightydubster/ride7/pygmy/profiles/lcd\nokia132x132.c ****             ucR = 0x0F;
 246:c:/users/mightydubster/ride7/pygmy/profiles/lcd\nokia132x132.c ****             ucG = 0x0F;
 247:c:/users/mightydubster/ride7/pygmy/profiles/lcd\nokia132x132.c ****             ucB = 0x0F;
 248:c:/users/mightydubster/ride7/pygmy/profiles/lcd\nokia132x132.c ****         } // if
 249:c:/users/mightydubster/ride7/pygmy/profiles/lcd\nokia132x132.c ****     } else */
 250:c:/users/mightydubster/ride7/pygmy/profiles/lcd\nokia132x132.c ****     if( pygmyGlobalColors.BPP == PYGMY_PBM_8BPP ){
 628              		.loc 1 250 0
 629 0002 0D4B     		ldr	r3, .L43	@ tmp137,
 630 0004 1C7C     		ldrb	r4, [r3, #16]	@ zero_extendqisi2	@ D.3817, pygmyGlobalColors.BPP
 631              		.cfi_offset 14, -4
 632              		.cfi_offset 4, -8
 633 0006 022C     		cmp	r4, #2	@ D.3817,
 634 0008 07D1     		bne	.L40	@,
 251:c:/users/mightydubster/ride7/pygmy/profiles/lcd\nokia132x132.c ****         ucR *= 2;
 635              		.loc 1 251 0
 636 000a 4000     		lsls	r0, r0, #1	@ tmp139, ucR,
 637              	.LVL31:
 252:c:/users/mightydubster/ride7/pygmy/profiles/lcd\nokia132x132.c ****         ucG *= 3;
 638              		.loc 1 252 0
 639 000c 01EB4101 		add	r1, r1, r1, lsl #1	@, tmp144, ucG, ucG,
 640              	.LVL32:
 253:c:/users/mightydubster/ride7/pygmy/profiles/lcd\nokia132x132.c ****         ucB *= 2;
 641              		.loc 1 253 0
ARM GAS  C:\Users\MIGHTY~1\AppData\Local\Temp\ccjdSXZd.s 			page 17


 642 0010 5200     		lsls	r2, r2, #1	@ tmp146, ucB,
 643              	.LVL33:
 251:c:/users/mightydubster/ride7/pygmy/profiles/lcd\nokia132x132.c ****         ucR *= 2;
 644              		.loc 1 251 0
 645 0012 C0B2     		uxtb	r0, r0	@ ucR, tmp139
 646              	.LVL34:
 252:c:/users/mightydubster/ride7/pygmy/profiles/lcd\nokia132x132.c ****         ucG *= 3;
 647              		.loc 1 252 0
 648 0014 C9B2     		uxtb	r1, r1	@ ucG, tmp144
 649              	.LVL35:
 650              		.loc 1 253 0
 651 0016 D2B2     		uxtb	r2, r2	@ ucB, tmp146
 652              	.LVL36:
 653 0018 0AE0     		b	.L41	@
 654              	.L40:
 254:c:/users/mightydubster/ride7/pygmy/profiles/lcd\nokia132x132.c ****     } else if( pygmyGlobalColors.BPP == PYGMY_PBM_16BPP ){
 655              		.loc 1 254 0
 656 001a 042C     		cmp	r4, #4	@ D.3817,
 657 001c 03D1     		bne	.L42	@,
 255:c:/users/mightydubster/ride7/pygmy/profiles/lcd\nokia132x132.c ****         ucR >>= 1;
 658              		.loc 1 255 0
 659 001e 4008     		lsrs	r0, r0, #1	@ ucR, ucR,
 660              	.LVL37:
 256:c:/users/mightydubster/ride7/pygmy/profiles/lcd\nokia132x132.c ****         ucG >>= 2;
 661              		.loc 1 256 0
 662 0020 8908     		lsrs	r1, r1, #2	@ ucG, ucG,
 663              	.LVL38:
 257:c:/users/mightydubster/ride7/pygmy/profiles/lcd\nokia132x132.c ****         ucB >>= 1;
 664              		.loc 1 257 0
 665 0022 5208     		lsrs	r2, r2, #1	@ ucB, ucB,
 666              	.LVL39:
 667 0024 04E0     		b	.L41	@
 668              	.L42:
 258:c:/users/mightydubster/ride7/pygmy/profiles/lcd\nokia132x132.c ****     } else if( pygmyGlobalColors.BPP == PYGMY_PBM_24BPP ){
 669              		.loc 1 258 0
 670 0026 052C     		cmp	r4, #5	@ D.3817,
 671 0028 02D1     		bne	.L41	@,
 259:c:/users/mightydubster/ride7/pygmy/profiles/lcd\nokia132x132.c ****         ucR >>= 4;
 672              		.loc 1 259 0
 673 002a 0009     		lsrs	r0, r0, #4	@ ucR, ucR,
 674              	.LVL40:
 260:c:/users/mightydubster/ride7/pygmy/profiles/lcd\nokia132x132.c ****         ucG >>= 4;
 675              		.loc 1 260 0
 676 002c 0909     		lsrs	r1, r1, #4	@ ucG, ucG,
 677              	.LVL41:
 261:c:/users/mightydubster/ride7/pygmy/profiles/lcd\nokia132x132.c ****         ucB >>= 4;
 678              		.loc 1 261 0
 679 002e 1209     		lsrs	r2, r2, #4	@ ucB, ucB,
 680              	.LVL42:
 681              	.L41:
 262:c:/users/mightydubster/ride7/pygmy/profiles/lcd\nokia132x132.c ****     } // if
 263:c:/users/mightydubster/ride7/pygmy/profiles/lcd\nokia132x132.c ****     pygmyGlobalColors.Color.R = ucR;
 682              		.loc 1 263 0
 683 0030 D870     		strb	r0, [r3, #3]	@ ucR, pygmyGlobalColors.Color.R
 264:c:/users/mightydubster/ride7/pygmy/profiles/lcd\nokia132x132.c ****     pygmyGlobalColors.Color.G = ucG;
 684              		.loc 1 264 0
 685 0032 1971     		strb	r1, [r3, #4]	@ ucG, pygmyGlobalColors.Color.G
ARM GAS  C:\Users\MIGHTY~1\AppData\Local\Temp\ccjdSXZd.s 			page 18


 265:c:/users/mightydubster/ride7/pygmy/profiles/lcd\nokia132x132.c ****     pygmyGlobalColors.Color.B = ucB;
 686              		.loc 1 265 0
 687 0034 5A71     		strb	r2, [r3, #5]	@ ucB, pygmyGlobalColors.Color.B
 266:c:/users/mightydubster/ride7/pygmy/profiles/lcd\nokia132x132.c **** }
 688              		.loc 1 266 0
 689 0036 10BD     		pop	{r4, pc}	@
 690              	.L44:
 691              		.align	2
 692              	.L43:
 693 0038 00000000 		.word	pygmyGlobalColors
 694              		.cfi_endproc
 695              	.LFE14:
 696              		.size	lcdSetColor, .-lcdSetColor
 697              		.section	.text.lcdClearArea,"ax",%progbits
 698              		.align	1
 699              		.global	lcdClearArea
 700              		.thumb
 701              		.thumb_func
 702              		.type	lcdClearArea, %function
 703              	lcdClearArea:
 704              	.LFB15:
 267:c:/users/mightydubster/ride7/pygmy/profiles/lcd\nokia132x132.c **** 
 268:c:/users/mightydubster/ride7/pygmy/profiles/lcd\nokia132x132.c **** void lcdClearArea( u16 uiX1, u16 uiY1, u16 uiX2, u16 uiY2 )
 269:c:/users/mightydubster/ride7/pygmy/profiles/lcd\nokia132x132.c **** { 
 705              		.loc 1 269 0
 706              		.cfi_startproc
 707              		@ args = 0, pretend = 0, frame = 0
 708              		@ frame_needed = 0, uses_anonymous_args = 0
 709              	.LVL43:
 710 0000 2DE9F047 		push	{r4, r5, r6, r7, r8, r9, sl, lr}	@
 711              	.LCFI6:
 712              		.cfi_def_cfa_offset 32
 270:c:/users/mightydubster/ride7/pygmy/profiles/lcd\nokia132x132.c ****     u32 i;
 271:c:/users/mightydubster/ride7/pygmy/profiles/lcd\nokia132x132.c ****     u8 ucColor;
 272:c:/users/mightydubster/ride7/pygmy/profiles/lcd\nokia132x132.c **** 
 273:c:/users/mightydubster/ride7/pygmy/profiles/lcd\nokia132x132.c ****     
 274:c:/users/mightydubster/ride7/pygmy/profiles/lcd\nokia132x132.c ****     ucColor = ( pygmyGlobalColors.BackColor.G << 4 ) | pygmyGlobalColors.BackColor.B;
 713              		.loc 1 274 0
 714 0004 194F     		ldr	r7, .L50	@ tmp154,
 715              		.cfi_offset 14, -4
 716              		.cfi_offset 10, -8
 717              		.cfi_offset 9, -12
 718              		.cfi_offset 8, -16
 719              		.cfi_offset 7, -20
 720              		.cfi_offset 6, -24
 721              		.cfi_offset 5, -28
 722              		.cfi_offset 4, -32
 269:c:/users/mightydubster/ride7/pygmy/profiles/lcd\nokia132x132.c **** { 
 723              		.loc 1 269 0
 724 0006 9946     		mov	r9, r3	@ uiY2, uiY2
 725              		.loc 1 274 0
 726 0008 97F801A0 		ldrb	sl, [r7, #1]	@ zero_extendqisi2	@ pygmyGlobalColors.BackColor.G, pygmyGlobalColors.BackColor.
 727 000c BB78     		ldrb	r3, [r7, #2]	@ zero_extendqisi2	@ pygmyGlobalColors.BackColor.B, pygmyGlobalColors.BackColor.
 728              	.LVL44:
 269:c:/users/mightydubster/ride7/pygmy/profiles/lcd\nokia132x132.c **** { 
 729              		.loc 1 269 0
 730 000e 0D46     		mov	r5, r1	@ uiY1, uiY1
ARM GAS  C:\Users\MIGHTY~1\AppData\Local\Temp\ccjdSXZd.s 			page 19


 731 0010 0446     		mov	r4, r0	@ uiX1, uiX1
 275:c:/users/mightydubster/ride7/pygmy/profiles/lcd\nokia132x132.c ****     lcdWriteCommand( LCD_PAGESET );  
 732              		.loc 1 275 0
 733 0012 7520     		movs	r0, #117	@,
 734              	.LVL45:
 269:c:/users/mightydubster/ride7/pygmy/profiles/lcd\nokia132x132.c **** { 
 735              		.loc 1 269 0
 736 0014 1646     		mov	r6, r2	@ uiX2, uiX2
 274:c:/users/mightydubster/ride7/pygmy/profiles/lcd\nokia132x132.c ****     ucColor = ( pygmyGlobalColors.BackColor.G << 4 ) | pygmyGlobalColors.BackColor.B;
 737              		.loc 1 274 0
 738 0016 43EA0A1A 		orr	sl, r3, sl, lsl #4	@, tmp161, pygmyGlobalColors.BackColor.B, pygmyGlobalColors.BackColor.G,
 739              		.loc 1 275 0
 740 001a FFF7FEFF 		bl	lcdWriteCommand	@
 741              	.LVL46:
 276:c:/users/mightydubster/ride7/pygmy/profiles/lcd\nokia132x132.c ****     lcdWriteData( uiY1 );
 742              		.loc 1 276 0
 743 001e 2846     		mov	r0, r5	@, uiY1
 744 0020 FFF7FEFF 		bl	lcdWriteData	@
 277:c:/users/mightydubster/ride7/pygmy/profiles/lcd\nokia132x132.c ****     lcdWriteData( uiY2 );
 745              		.loc 1 277 0
 746 0024 4846     		mov	r0, r9	@, uiY2
 747 0026 FFF7FEFF 		bl	lcdWriteData	@
 278:c:/users/mightydubster/ride7/pygmy/profiles/lcd\nokia132x132.c ****     lcdWriteCommand( LCD_COLSET );  
 748              		.loc 1 278 0
 749 002a 1520     		movs	r0, #21	@,
 750 002c FFF7FEFF 		bl	lcdWriteCommand	@
 279:c:/users/mightydubster/ride7/pygmy/profiles/lcd\nokia132x132.c ****     lcdWriteData( uiX1 );
 751              		.loc 1 279 0
 752 0030 2046     		mov	r0, r4	@, uiX1
 753 0032 FFF7FEFF 		bl	lcdWriteData	@
 280:c:/users/mightydubster/ride7/pygmy/profiles/lcd\nokia132x132.c ****     lcdWriteData( uiX2 );
 754              		.loc 1 280 0
 755 0036 3046     		mov	r0, r6	@, uiX2
 756 0038 FFF7FEFF 		bl	lcdWriteData	@
 281:c:/users/mightydubster/ride7/pygmy/profiles/lcd\nokia132x132.c ****     lcdWriteCommand( LCD_RAMWR );    
 757              		.loc 1 281 0
 758 003c 5C20     		movs	r0, #92	@,
 274:c:/users/mightydubster/ride7/pygmy/profiles/lcd\nokia132x132.c ****     ucColor = ( pygmyGlobalColors.BackColor.G << 4 ) | pygmyGlobalColors.BackColor.B;
 759              		.loc 1 274 0
 760 003e 5FFA8AFA 		uxtb	sl, sl	@ ucColor, tmp161
 761              	.LVL47:
 762              		.loc 1 281 0
 763 0042 FFF7FEFF 		bl	lcdWriteCommand	@
 282:c:/users/mightydubster/ride7/pygmy/profiles/lcd\nokia132x132.c ****     for( ; uiY1 < uiY2; uiY1++ ){
 764              		.loc 1 282 0
 765 0046 0DE0     		b	.L46	@
 766              	.LVL48:
 767              	.L49:
 283:c:/users/mightydubster/ride7/pygmy/profiles/lcd\nokia132x132.c ****         for( i = uiX1; i < uiX2; i++ ){ 
 768              		.loc 1 283 0
 769 0048 A046     		mov	r8, r4	@ i, uiX1
 770              	.LVL49:
 771 004a 07E0     		b	.L47	@
 772              	.LVL50:
 773              	.L48:
 284:c:/users/mightydubster/ride7/pygmy/profiles/lcd\nokia132x132.c ****             lcdWriteData( pygmyGlobalColors.BackColor.R );   
 774              		.loc 1 284 0 discriminator 2
ARM GAS  C:\Users\MIGHTY~1\AppData\Local\Temp\ccjdSXZd.s 			page 20


 775 004c 3878     		ldrb	r0, [r7, #0]	@ zero_extendqisi2	@, pygmyGlobalColors.BackColor.R
 776 004e FFF7FEFF 		bl	lcdWriteData	@
 285:c:/users/mightydubster/ride7/pygmy/profiles/lcd\nokia132x132.c ****             // 0x00B0 | 0x000R = 0x00B
 286:c:/users/mightydubster/ride7/pygmy/profiles/lcd\nokia132x132.c ****             lcdWriteData( ucColor );
 777              		.loc 1 286 0 discriminator 2
 778 0052 5046     		mov	r0, sl	@, ucColor
 779 0054 FFF7FEFF 		bl	lcdWriteData	@
 283:c:/users/mightydubster/ride7/pygmy/profiles/lcd\nokia132x132.c ****         for( i = uiX1; i < uiX2; i++ ){ 
 780              		.loc 1 283 0 discriminator 2
 781 0058 08F10108 		add	r8, r8, #1	@ i, i,
 782              	.LVL51:
 783              	.L47:
 283:c:/users/mightydubster/ride7/pygmy/profiles/lcd\nokia132x132.c ****         for( i = uiX1; i < uiX2; i++ ){ 
 784              		.loc 1 283 0 is_stmt 0 discriminator 1
 785 005c B045     		cmp	r8, r6	@ i, uiX2
 786 005e F5D3     		bcc	.L48	@,
 282:c:/users/mightydubster/ride7/pygmy/profiles/lcd\nokia132x132.c ****     for( ; uiY1 < uiY2; uiY1++ ){
 787              		.loc 1 282 0 is_stmt 1
 788 0060 0135     		adds	r5, r5, #1	@ tmp166, uiY1,
 789              	.LVL52:
 790 0062 ADB2     		uxth	r5, r5	@ uiY1, tmp166
 791              	.LVL53:
 792              	.L46:
 282:c:/users/mightydubster/ride7/pygmy/profiles/lcd\nokia132x132.c ****     for( ; uiY1 < uiY2; uiY1++ ){
 793              		.loc 1 282 0 is_stmt 0 discriminator 1
 794 0064 4D45     		cmp	r5, r9	@ uiY1, uiY2
 795 0066 EFD3     		bcc	.L49	@,
 287:c:/users/mightydubster/ride7/pygmy/profiles/lcd\nokia132x132.c ****         } // for
 288:c:/users/mightydubster/ride7/pygmy/profiles/lcd\nokia132x132.c ****     } // for
 289:c:/users/mightydubster/ride7/pygmy/profiles/lcd\nokia132x132.c ****     
 290:c:/users/mightydubster/ride7/pygmy/profiles/lcd\nokia132x132.c **** }
 796              		.loc 1 290 0 is_stmt 1
 797 0068 BDE8F087 		pop	{r4, r5, r6, r7, r8, r9, sl, pc}	@
 798              	.L51:
 799              		.align	2
 800              	.L50:
 801 006c 00000000 		.word	pygmyGlobalColors
 802              		.cfi_endproc
 803              	.LFE15:
 804              		.size	lcdClearArea, .-lcdClearArea
 805              		.section	.text.lcdClear,"ax",%progbits
 806              		.align	1
 807              		.global	lcdClear
 808              		.thumb
 809              		.thumb_func
 810              		.type	lcdClear, %function
 811              	lcdClear:
 812              	.LFB16:
 291:c:/users/mightydubster/ride7/pygmy/profiles/lcd\nokia132x132.c **** 
 292:c:/users/mightydubster/ride7/pygmy/profiles/lcd\nokia132x132.c **** void lcdClear( void )
 293:c:/users/mightydubster/ride7/pygmy/profiles/lcd\nokia132x132.c **** {
 813              		.loc 1 293 0
 814              		.cfi_startproc
 815              		@ args = 0, pretend = 0, frame = 0
 816              		@ frame_needed = 0, uses_anonymous_args = 0
 817 0000 38B5     		push	{r3, r4, r5, lr}	@
 818              	.LCFI7:
ARM GAS  C:\Users\MIGHTY~1\AppData\Local\Temp\ccjdSXZd.s 			page 21


 819              		.cfi_def_cfa_offset 16
 294:c:/users/mightydubster/ride7/pygmy/profiles/lcd\nokia132x132.c ****     u32 i, ulLen;
 295:c:/users/mightydubster/ride7/pygmy/profiles/lcd\nokia132x132.c ****   
 296:c:/users/mightydubster/ride7/pygmy/profiles/lcd\nokia132x132.c ****     lcdWriteCommand( LCD_PAGESET );
 820              		.loc 1 296 0
 821 0002 7520     		movs	r0, #117	@,
 822              		.cfi_offset 14, -4
 823              		.cfi_offset 5, -8
 824              		.cfi_offset 4, -12
 825              		.cfi_offset 3, -16
 826 0004 FFF7FEFF 		bl	lcdWriteCommand	@
 297:c:/users/mightydubster/ride7/pygmy/profiles/lcd\nokia132x132.c **** 	lcdWriteData( 0 );
 827              		.loc 1 297 0
 828 0008 0020     		movs	r0, #0	@,
 829 000a FFF7FEFF 		bl	lcdWriteData	@
 298:c:/users/mightydubster/ride7/pygmy/profiles/lcd\nokia132x132.c **** 	lcdWriteData( LCD_ENDROW );
 830              		.loc 1 298 0
 831 000e 8320     		movs	r0, #131	@,
 832 0010 FFF7FEFF 		bl	lcdWriteData	@
 299:c:/users/mightydubster/ride7/pygmy/profiles/lcd\nokia132x132.c **** 	
 300:c:/users/mightydubster/ride7/pygmy/profiles/lcd\nokia132x132.c **** 	lcdWriteCommand( LCD_COLSET );
 833              		.loc 1 300 0
 834 0014 1520     		movs	r0, #21	@,
 835 0016 FFF7FEFF 		bl	lcdWriteCommand	@
 301:c:/users/mightydubster/ride7/pygmy/profiles/lcd\nokia132x132.c **** 	lcdWriteData( 0 );
 836              		.loc 1 301 0
 837 001a 0020     		movs	r0, #0	@,
 838 001c FFF7FEFF 		bl	lcdWriteData	@
 302:c:/users/mightydubster/ride7/pygmy/profiles/lcd\nokia132x132.c **** 	lcdWriteData( LCD_ENDCOL );
 839              		.loc 1 302 0
 840 0020 8320     		movs	r0, #131	@,
 841 0022 FFF7FEFF 		bl	lcdWriteData	@
 303:c:/users/mightydubster/ride7/pygmy/profiles/lcd\nokia132x132.c **** 
 304:c:/users/mightydubster/ride7/pygmy/profiles/lcd\nokia132x132.c **** 	lcdWriteCommand( LCD_RAMWR );
 842              		.loc 1 304 0
 843 0026 5C20     		movs	r0, #92	@,
 844 0028 FFF7FEFF 		bl	lcdWriteCommand	@
 845              	.LVL54:
 846 002c 42F20824 		movw	r4, #8712	@ ivtmp.43,
 847              	.LVL55:
 848              	.L53:
 305:c:/users/mightydubster/ride7/pygmy/profiles/lcd\nokia132x132.c **** 	ulLen = ( LCD_ROWS * LCD_COLS ) / 2;
 306:c:/users/mightydubster/ride7/pygmy/profiles/lcd\nokia132x132.c ****    
 307:c:/users/mightydubster/ride7/pygmy/profiles/lcd\nokia132x132.c **** 	for( i = 0; i < ulLen; i++ ) {
 308:c:/users/mightydubster/ride7/pygmy/profiles/lcd\nokia132x132.c **** 		lcdWriteData( pygmyGlobalColors.BackColor.R );
 849              		.loc 1 308 0 discriminator 2
 850 0030 064D     		ldr	r5, .L54	@ tmp140,
 851 0032 2878     		ldrb	r0, [r5, #0]	@ zero_extendqisi2	@, pygmyGlobalColors.BackColor.R
 852 0034 FFF7FEFF 		bl	lcdWriteData	@
 309:c:/users/mightydubster/ride7/pygmy/profiles/lcd\nokia132x132.c **** 		lcdWriteData( pygmyGlobalColors.BackColor.G );
 853              		.loc 1 309 0 discriminator 2
 854 0038 6878     		ldrb	r0, [r5, #1]	@ zero_extendqisi2	@, pygmyGlobalColors.BackColor.G
 855 003a FFF7FEFF 		bl	lcdWriteData	@
 310:c:/users/mightydubster/ride7/pygmy/profiles/lcd\nokia132x132.c **** 		lcdWriteData( pygmyGlobalColors.BackColor.B );
 856              		.loc 1 310 0 discriminator 2
 857 003e A878     		ldrb	r0, [r5, #2]	@ zero_extendqisi2	@, pygmyGlobalColors.BackColor.B
 858 0040 FFF7FEFF 		bl	lcdWriteData	@
ARM GAS  C:\Users\MIGHTY~1\AppData\Local\Temp\ccjdSXZd.s 			page 22


 307:c:/users/mightydubster/ride7/pygmy/profiles/lcd\nokia132x132.c **** 	for( i = 0; i < ulLen; i++ ) {
 859              		.loc 1 307 0 discriminator 2
 860 0044 013C     		subs	r4, r4, #1	@ ivtmp.43, ivtmp.43,
 861 0046 F3D1     		bne	.L53	@,
 311:c:/users/mightydubster/ride7/pygmy/profiles/lcd\nokia132x132.c **** 	} // for
 312:c:/users/mightydubster/ride7/pygmy/profiles/lcd\nokia132x132.c **** }
 862              		.loc 1 312 0
 863 0048 38BD     		pop	{r3, r4, r5, pc}	@
 864              	.L55:
 865 004a 00BF     		.align	2
 866              	.L54:
 867 004c 00000000 		.word	pygmyGlobalColors
 868              		.cfi_endproc
 869              	.LFE16:
 870              		.size	lcdClear, .-lcdClear
 871              		.section	.text.lcdInit,"ax",%progbits
 872              		.align	1
 873              		.global	lcdInit
 874              		.thumb
 875              		.thumb_func
 876              		.type	lcdInit, %function
 877              	lcdInit:
 878              	.LFB2:
  91:c:/users/mightydubster/ride7/pygmy/profiles/lcd\nokia132x132.c **** {	
 879              		.loc 1 91 0
 880              		.cfi_startproc
 881              		@ args = 0, pretend = 0, frame = 0
 882              		@ frame_needed = 0, uses_anonymous_args = 0
 883 0000 07B5     		push	{r0, r1, r2, lr}	@
 884              	.LCFI8:
 885              		.cfi_def_cfa_offset 16
  92:c:/users/mightydubster/ride7/pygmy/profiles/lcd\nokia132x132.c ****     spiConfig( &pygmyLCD, LCD_CS, LCD_SCK, LCD_MISO, LCD_MOSI );
 886              		.loc 1 92 0
 887 0002 2923     		movs	r3, #41	@ tmp133,
 888 0004 2B22     		movs	r2, #43	@,
 889              		.cfi_offset 14, -4
 890              		.cfi_offset 2, -8
 891              		.cfi_offset 1, -12
 892              		.cfi_offset 0, -16
 893 0006 0093     		str	r3, [sp, #0]	@ tmp133,
 894 0008 0C21     		movs	r1, #12	@,
 895 000a 0133     		adds	r3, r3, #1	@,,
 896 000c 2D48     		ldr	r0, .L57	@,
 897 000e FFF7FEFF 		bl	spiConfig	@
  93:c:/users/mightydubster/ride7/pygmy/profiles/lcd\nokia132x132.c ****     pinConfig( LCD_RESET, OUT ); // We will use USART1_RTS as CS
 898              		.loc 1 93 0
 899 0012 0820     		movs	r0, #8	@,
 900 0014 0321     		movs	r1, #3	@,
 901 0016 FFF7FEFF 		bl	pinConfig	@
  95:c:/users/mightydubster/ride7/pygmy/profiles/lcd\nokia132x132.c ****     setPin( LCD_RESET, LOW );
 902              		.loc 1 95 0
 903 001a 0021     		movs	r1, #0	@,
 904 001c 0820     		movs	r0, #8	@,
 905 001e FFF7FEFF 		bl	setPin	@
  96:c:/users/mightydubster/ride7/pygmy/profiles/lcd\nokia132x132.c ****     delay( 2000 ); // microseconds
 906              		.loc 1 96 0
 907 0022 4FF4FA60 		mov	r0, #2000	@,
ARM GAS  C:\Users\MIGHTY~1\AppData\Local\Temp\ccjdSXZd.s 			page 23


 908 0026 FFF7FEFF 		bl	delay	@
  97:c:/users/mightydubster/ride7/pygmy/profiles/lcd\nokia132x132.c ****     setPin( LCD_RESET, HIGH );
 909              		.loc 1 97 0
 910 002a 0121     		movs	r1, #1	@,
 911 002c 0820     		movs	r0, #8	@,
 912 002e FFF7FEFF 		bl	setPin	@
  98:c:/users/mightydubster/ride7/pygmy/profiles/lcd\nokia132x132.c ****     delay( 2000 ); // microseconds
 913              		.loc 1 98 0
 914 0032 4FF4FA60 		mov	r0, #2000	@,
 915 0036 FFF7FEFF 		bl	delay	@
  99:c:/users/mightydubster/ride7/pygmy/profiles/lcd\nokia132x132.c ****     lcdWriteCommand( LCD_DISCTL );
 916              		.loc 1 99 0
 917 003a CA20     		movs	r0, #202	@,
 918 003c FFF7FEFF 		bl	lcdWriteCommand	@
 100:c:/users/mightydubster/ride7/pygmy/profiles/lcd\nokia132x132.c ****     lcdWriteData( 0x0C );   		
 919              		.loc 1 100 0
 920 0040 0C20     		movs	r0, #12	@,
 921 0042 FFF7FEFF 		bl	lcdWriteData	@
 101:c:/users/mightydubster/ride7/pygmy/profiles/lcd\nokia132x132.c **** 	lcdWriteData( 0x20 );    
 922              		.loc 1 101 0
 923 0046 2020     		movs	r0, #32	@,
 924 0048 FFF7FEFF 		bl	lcdWriteData	@
 102:c:/users/mightydubster/ride7/pygmy/profiles/lcd\nokia132x132.c **** 	lcdWriteData( 0x00 );
 925              		.loc 1 102 0
 926 004c 0020     		movs	r0, #0	@,
 927 004e FFF7FEFF 		bl	lcdWriteData	@
 103:c:/users/mightydubster/ride7/pygmy/profiles/lcd\nokia132x132.c **** 	lcdWriteData( 0x01 );
 928              		.loc 1 103 0
 929 0052 0120     		movs	r0, #1	@,
 930 0054 FFF7FEFF 		bl	lcdWriteData	@
 105:c:/users/mightydubster/ride7/pygmy/profiles/lcd\nokia132x132.c ****     lcdWriteCommand( LCD_OSCON );  	
 931              		.loc 1 105 0
 932 0058 D120     		movs	r0, #209	@,
 933 005a FFF7FEFF 		bl	lcdWriteCommand	@
 106:c:/users/mightydubster/ride7/pygmy/profiles/lcd\nokia132x132.c ****     lcdWriteCommand( LCD_SLPOUT );  
 934              		.loc 1 106 0
 935 005e 9420     		movs	r0, #148	@,
 936 0060 FFF7FEFF 		bl	lcdWriteCommand	@
 107:c:/users/mightydubster/ride7/pygmy/profiles/lcd\nokia132x132.c ****     lcdWriteCommand( LCD_PWRCTR );  // all on
 937              		.loc 1 107 0
 938 0064 2020     		movs	r0, #32	@,
 939 0066 FFF7FEFF 		bl	lcdWriteCommand	@
 108:c:/users/mightydubster/ride7/pygmy/profiles/lcd\nokia132x132.c ****     lcdWriteData( 0x0F );    		// 
 940              		.loc 1 108 0
 941 006a 0F20     		movs	r0, #15	@,
 942 006c FFF7FEFF 		bl	lcdWriteData	@
 110:c:/users/mightydubster/ride7/pygmy/profiles/lcd\nokia132x132.c ****     lcdWriteCommand( LCD_DATCTL );
 943              		.loc 1 110 0
 944 0070 BC20     		movs	r0, #188	@,
 945 0072 FFF7FEFF 		bl	lcdWriteCommand	@
 111:c:/users/mightydubster/ride7/pygmy/profiles/lcd\nokia132x132.c ****     lcdWriteData(0x00);			    // P1
 946              		.loc 1 111 0
 947 0076 0020     		movs	r0, #0	@,
 948 0078 FFF7FEFF 		bl	lcdWriteData	@
 112:c:/users/mightydubster/ride7/pygmy/profiles/lcd\nokia132x132.c **** 	lcdWriteData(0x01);   		    // P2, Alternate RGB arrangement
 949              		.loc 1 112 0
 950 007c 0120     		movs	r0, #1	@,
ARM GAS  C:\Users\MIGHTY~1\AppData\Local\Temp\ccjdSXZd.s 			page 24


 951 007e FFF7FEFF 		bl	lcdWriteData	@
 113:c:/users/mightydubster/ride7/pygmy/profiles/lcd\nokia132x132.c **** 	lcdWriteData(0x04);			    // P3, 16-bit Grayscale Type B
 952              		.loc 1 113 0
 953 0082 0420     		movs	r0, #4	@,
 954 0084 FFF7FEFF 		bl	lcdWriteData	@
 115:c:/users/mightydubster/ride7/pygmy/profiles/lcd\nokia132x132.c ****     lcdWriteCommand( LCD_VOLCTR ); 
 955              		.loc 1 115 0
 956 0088 8120     		movs	r0, #129	@,
 957 008a FFF7FEFF 		bl	lcdWriteCommand	@
 116:c:/users/mightydubster/ride7/pygmy/profiles/lcd\nokia132x132.c **** 	lcdWriteData( 0x24 );   		// fine
 958              		.loc 1 116 0
 959 008e 2420     		movs	r0, #36	@,
 960 0090 FFF7FEFF 		bl	lcdWriteData	@
 117:c:/users/mightydubster/ride7/pygmy/profiles/lcd\nokia132x132.c ****     lcdWriteData( 0x03 );   		// coarse
 961              		.loc 1 117 0
 962 0094 0320     		movs	r0, #3	@,
 963 0096 FFF7FEFF 		bl	lcdWriteData	@
 119:c:/users/mightydubster/ride7/pygmy/profiles/lcd\nokia132x132.c ****     lcdWriteCommand( LCD_NOP );  	
 964              		.loc 1 119 0
 965 009a 2520     		movs	r0, #37	@,
 966 009c FFF7FEFF 		bl	lcdWriteCommand	@
 120:c:/users/mightydubster/ride7/pygmy/profiles/lcd\nokia132x132.c ****     lcdWriteCommand( LCD_DISON ); 
 967              		.loc 1 120 0
 968 00a0 AF20     		movs	r0, #175	@,
 969 00a2 FFF7FEFF 		bl	lcdWriteCommand	@
 121:c:/users/mightydubster/ride7/pygmy/profiles/lcd\nokia132x132.c ****     lcdSetColor( 0xFF, 0xFF, 0xFF );
 970              		.loc 1 121 0
 971 00a6 FF20     		movs	r0, #255	@,
 972 00a8 0146     		mov	r1, r0	@,
 973 00aa 0246     		mov	r2, r0	@,
 974 00ac FFF7FEFF 		bl	lcdSetColor	@
 122:c:/users/mightydubster/ride7/pygmy/profiles/lcd\nokia132x132.c ****     lcdBackColor( 0x00, 0x00, 0x00 );
 975              		.loc 1 122 0
 976 00b0 0020     		movs	r0, #0	@,
 977 00b2 0146     		mov	r1, r0	@,
 978 00b4 0246     		mov	r2, r0	@,
 979 00b6 FFF7FEFF 		bl	lcdBackColor	@
 124:c:/users/mightydubster/ride7/pygmy/profiles/lcd\nokia132x132.c **** }
 980              		.loc 1 124 0
 981 00ba 03B0     		add	sp, sp, #12	@,,
 982 00bc 5DF804EB 		pop	{lr}
 123:c:/users/mightydubster/ride7/pygmy/profiles/lcd\nokia132x132.c ****     lcdClear();
 983              		.loc 1 123 0
 984 00c0 FFF7FEBF 		b	lcdClear	@
 985              	.L58:
 986              		.align	2
 987              	.L57:
 988 00c4 00000000 		.word	pygmyLCD
 989              		.cfi_endproc
 990              	.LFE2:
 991              		.size	lcdInit, .-lcdInit
 992              		.comm	pygmyGlobalColors,20,4
 993              		.comm	pygmyLCD,24,4
 994              		.text
 995              	.Letext0: